
./test/test.om:     file format elf32-littleriscv


Disassembly of section .rom:

00000000 <.rom>:
   0:	00020137          	lui	sp,0x20
   4:	040010ef          	jal	ra,1044 <main>
   8:	0ff00513          	li	a0,255
   c:	000306b7          	lui	a3,0x30
  10:	00a68223          	sb	a0,4(a3) # 30004 <__heap_start+0x2e004>
  14:	ff9ff06f          	j	c <printInt-0xff4>

Disassembly of section .text:

00001000 <printInt>:
    1000:	00001737          	lui	a4,0x1
    1004:	27c72783          	lw	a5,636(a4) # 127c <__bss_end>
    1008:	00f54533          	xor	a0,a0,a5
    100c:	0ad50513          	addi	a0,a0,173
    1010:	26a72e23          	sw	a0,636(a4)
    1014:	00008067          	ret

00001018 <printStr>:
    1018:	00054783          	lbu	a5,0(a0)
    101c:	02078263          	beqz	a5,1040 <printStr+0x28>
    1020:	00001737          	lui	a4,0x1
    1024:	27c72683          	lw	a3,636(a4) # 127c <__bss_end>
    1028:	00d7c7b3          	xor	a5,a5,a3
    102c:	20978793          	addi	a5,a5,521
    1030:	26f72e23          	sw	a5,636(a4)
    1034:	00150513          	addi	a0,a0,1
    1038:	00054783          	lbu	a5,0(a0)
    103c:	fe0794e3          	bnez	a5,1024 <printStr+0xc>
    1040:	00008067          	ret

00001044 <main>:
    1044:	81010113          	addi	sp,sp,-2032 # 1f810 <__heap_start+0x1d810>
    1048:	7e112623          	sw	ra,2028(sp)
    104c:	7e812423          	sw	s0,2024(sp)
    1050:	7e912223          	sw	s1,2020(sp)
    1054:	7f212023          	sw	s2,2016(sp)
    1058:	7d312e23          	sw	s3,2012(sp)
    105c:	7d412c23          	sw	s4,2008(sp)
    1060:	7d512a23          	sw	s5,2004(sp)
    1064:	7d612823          	sw	s6,2000(sp)
    1068:	7d712623          	sw	s7,1996(sp)
    106c:	7d812423          	sw	s8,1992(sp)
    1070:	ffff7337          	lui	t1,0xffff7
    1074:	b8030313          	addi	t1,t1,-1152 # ffff6b80 <__heap_start+0xffff4b80>
    1078:	00610133          	add	sp,sp,t1
    107c:	ffff6437          	lui	s0,0xffff6
    1080:	0000a737          	lui	a4,0xa
    1084:	c4070793          	addi	a5,a4,-960 # 9c40 <__heap_start+0x7c40>
    1088:	002787b3          	add	a5,a5,sp
    108c:	00878433          	add	s0,a5,s0
    1090:	55040413          	addi	s0,s0,1360 # ffff6550 <__heap_start+0xffff4550>
    1094:	dd070793          	addi	a5,a4,-560
    1098:	00f10933          	add	s2,sp,a5
    109c:	00040713          	mv	a4,s0
    10a0:	00c0006f          	j	10ac <main+0x68>
    10a4:	19070713          	addi	a4,a4,400
    10a8:	01270c63          	beq	a4,s2,10c0 <main+0x7c>
    10ac:	e7070793          	addi	a5,a4,-400
    10b0:	0007a023          	sw	zero,0(a5)
    10b4:	00478793          	addi	a5,a5,4
    10b8:	fee79ce3          	bne	a5,a4,10b0 <main+0x6c>
    10bc:	fe9ff06f          	j	10a4 <main+0x60>
    10c0:	00100493          	li	s1,1
    10c4:	03a00a13          	li	s4,58
    10c8:	06300993          	li	s3,99
    10cc:	ffff6b37          	lui	s6,0xffff6
    10d0:	0000a7b7          	lui	a5,0xa
    10d4:	c4078793          	addi	a5,a5,-960 # 9c40 <__heap_start+0x7c40>
    10d8:	002787b3          	add	a5,a5,sp
    10dc:	01678b33          	add	s6,a5,s6
    10e0:	05c0006f          	j	113c <main+0xf8>
    10e4:	00000b93          	li	s7,0
    10e8:	01900593          	li	a1,25
    10ec:	000b8513          	mv	a0,s7
    10f0:	0d4000ef          	jal	ra,11c4 <__divsi3>
    10f4:	01550c33          	add	s8,a0,s5
    10f8:	06400593          	li	a1,100
    10fc:	002b9513          	slli	a0,s7,0x2
    1100:	148000ef          	jal	ra,1248 <__modsi3>
    1104:	001c1793          	slli	a5,s8,0x1
    1108:	018787b3          	add	a5,a5,s8
    110c:	00379793          	slli	a5,a5,0x3
    1110:	018787b3          	add	a5,a5,s8
    1114:	00279793          	slli	a5,a5,0x2
    1118:	00a787b3          	add	a5,a5,a0
    111c:	00279793          	slli	a5,a5,0x2
    1120:	00fb07b3          	add	a5,s6,a5
    1124:	032b8713          	addi	a4,s7,50
    1128:	3ce7a023          	sw	a4,960(a5)
    112c:	001b8b93          	addi	s7,s7,1
    1130:	06400793          	li	a5,100
    1134:	fafb9ae3          	bne	s7,a5,10e8 <main+0xa4>
    1138:	00148493          	addi	s1,s1,1
    113c:	fff48a93          	addi	s5,s1,-1
    1140:	fea48793          	addi	a5,s1,-22
    1144:	fafa70e3          	bgeu	s4,a5,10e4 <main+0xa0>
    1148:	fe99d8e3          	bge	s3,s1,1138 <main+0xf4>
    114c:	00000513          	li	a0,0
    1150:	00c0006f          	j	115c <main+0x118>
    1154:	19040413          	addi	s0,s0,400
    1158:	01240e63          	beq	s0,s2,1174 <main+0x130>
    115c:	e7040793          	addi	a5,s0,-400
    1160:	0007a703          	lw	a4,0(a5)
    1164:	00e50533          	add	a0,a0,a4
    1168:	00478793          	addi	a5,a5,4
    116c:	fe879ae3          	bne	a5,s0,1160 <main+0x11c>
    1170:	fe5ff06f          	j	1154 <main+0x110>
    1174:	e8dff0ef          	jal	ra,1000 <printInt>
    1178:	0fd00593          	li	a1,253
    117c:	000017b7          	lui	a5,0x1
    1180:	27c7a503          	lw	a0,636(a5) # 127c <__bss_end>
    1184:	0c4000ef          	jal	ra,1248 <__modsi3>
    1188:	00009337          	lui	t1,0x9
    118c:	48030313          	addi	t1,t1,1152 # 9480 <__heap_start+0x7480>
    1190:	00610133          	add	sp,sp,t1
    1194:	7ec12083          	lw	ra,2028(sp)
    1198:	7e812403          	lw	s0,2024(sp)
    119c:	7e412483          	lw	s1,2020(sp)
    11a0:	7e012903          	lw	s2,2016(sp)
    11a4:	7dc12983          	lw	s3,2012(sp)
    11a8:	7d812a03          	lw	s4,2008(sp)
    11ac:	7d412a83          	lw	s5,2004(sp)
    11b0:	7d012b03          	lw	s6,2000(sp)
    11b4:	7cc12b83          	lw	s7,1996(sp)
    11b8:	7c812c03          	lw	s8,1992(sp)
    11bc:	7f010113          	addi	sp,sp,2032
    11c0:	00008067          	ret

000011c4 <__divsi3>:
    11c4:	06054063          	bltz	a0,1224 <__umodsi3+0x10>
    11c8:	0605c663          	bltz	a1,1234 <__umodsi3+0x20>

000011cc <__udivsi3>:
    11cc:	00058613          	mv	a2,a1
    11d0:	00050593          	mv	a1,a0
    11d4:	fff00513          	li	a0,-1
    11d8:	02060c63          	beqz	a2,1210 <__udivsi3+0x44>
    11dc:	00100693          	li	a3,1
    11e0:	00b67a63          	bgeu	a2,a1,11f4 <__udivsi3+0x28>
    11e4:	00c05863          	blez	a2,11f4 <__udivsi3+0x28>
    11e8:	00161613          	slli	a2,a2,0x1
    11ec:	00169693          	slli	a3,a3,0x1
    11f0:	feb66ae3          	bltu	a2,a1,11e4 <__udivsi3+0x18>
    11f4:	00000513          	li	a0,0
    11f8:	00c5e663          	bltu	a1,a2,1204 <__udivsi3+0x38>
    11fc:	40c585b3          	sub	a1,a1,a2
    1200:	00d56533          	or	a0,a0,a3
    1204:	0016d693          	srli	a3,a3,0x1
    1208:	00165613          	srli	a2,a2,0x1
    120c:	fe0696e3          	bnez	a3,11f8 <__udivsi3+0x2c>
    1210:	00008067          	ret

00001214 <__umodsi3>:
    1214:	00008293          	mv	t0,ra
    1218:	fb5ff0ef          	jal	ra,11cc <__udivsi3>
    121c:	00058513          	mv	a0,a1
    1220:	00028067          	jr	t0
    1224:	40a00533          	neg	a0,a0
    1228:	0005d863          	bgez	a1,1238 <__umodsi3+0x24>
    122c:	40b005b3          	neg	a1,a1
    1230:	f9dff06f          	j	11cc <__udivsi3>
    1234:	40b005b3          	neg	a1,a1
    1238:	00008293          	mv	t0,ra
    123c:	f91ff0ef          	jal	ra,11cc <__udivsi3>
    1240:	40a00533          	neg	a0,a0
    1244:	00028067          	jr	t0

00001248 <__modsi3>:
    1248:	00008293          	mv	t0,ra
    124c:	0005ca63          	bltz	a1,1260 <__modsi3+0x18>
    1250:	00054c63          	bltz	a0,1268 <__modsi3+0x20>
    1254:	f79ff0ef          	jal	ra,11cc <__udivsi3>
    1258:	00058513          	mv	a0,a1
    125c:	00028067          	jr	t0
    1260:	40b005b3          	neg	a1,a1
    1264:	fe0558e3          	bgez	a0,1254 <__modsi3+0xc>
    1268:	40a00533          	neg	a0,a0
    126c:	f61ff0ef          	jal	ra,11cc <__udivsi3>
    1270:	40b00533          	neg	a0,a1
    1274:	00028067          	jr	t0

Disassembly of section .srodata:

00001278 <Mod>:
    1278:	00fd                	addi	ra,ra,31
	...
