
./test/test.om:     file format elf32-littleriscv


Disassembly of section .rom:

00000000 <.rom>:
   0:	00020137          	lui	sp,0x20
   4:	040010ef          	jal	ra,1044 <main>
   8:	0ff00513          	li	a0,255
   c:	000306b7          	lui	a3,0x30
  10:	00a68223          	sb	a0,4(a3) # 30004 <__heap_start+0x2e004>
  14:	ff9ff06f          	j	c <printInt-0xff4>

Disassembly of section .text:

00001000 <printInt>:
    1000:	00001737          	lui	a4,0x1
    1004:	1e072783          	lw	a5,480(a4) # 11e0 <__bss_end>
    1008:	00f54533          	xor	a0,a0,a5
    100c:	0ad50513          	addi	a0,a0,173
    1010:	1ea72023          	sw	a0,480(a4)
    1014:	00008067          	ret

00001018 <printStr>:
    1018:	00054783          	lbu	a5,0(a0)
    101c:	02078263          	beqz	a5,1040 <printStr+0x28>
    1020:	00001737          	lui	a4,0x1
    1024:	1e072683          	lw	a3,480(a4) # 11e0 <__bss_end>
    1028:	00d7c7b3          	xor	a5,a5,a3
    102c:	20978793          	addi	a5,a5,521
    1030:	1ef72023          	sw	a5,480(a4)
    1034:	00150513          	addi	a0,a0,1
    1038:	00054783          	lbu	a5,0(a0)
    103c:	fe0794e3          	bnez	a5,1024 <printStr+0xc>
    1040:	00008067          	ret

00001044 <main>:
    1044:	ff010113          	addi	sp,sp,-16 # 1fff0 <__heap_start+0x1dff0>
    1048:	00112623          	sw	ra,12(sp)
    104c:	000017b7          	lui	a5,0x1
    1050:	1d47a783          	lw	a5,468(a5) # 11d4 <__bss_start>
    1054:	20000737          	lui	a4,0x20000
    1058:	fff70713          	addi	a4,a4,-1 # 1fffffff <__heap_start+0x1fffdfff>
    105c:	00e78733          	add	a4,a5,a4
    1060:	400006b7          	lui	a3,0x40000
    1064:	ffe68693          	addi	a3,a3,-2 # 3ffffffe <__heap_start+0x3fffdffe>
    1068:	06e6ea63          	bltu	a3,a4,10dc <main+0x98>
    106c:	00001737          	lui	a4,0x1
    1070:	1dc72703          	lw	a4,476(a4) # 11dc <A>
    1074:	000016b7          	lui	a3,0x1
    1078:	1d86a683          	lw	a3,472(a3) # 11d8 <B>
    107c:	20000537          	lui	a0,0x20000
    1080:	fff50513          	addi	a0,a0,-1 # 1fffffff <__heap_start+0x1fffdfff>
    1084:	400005b7          	lui	a1,0x40000
    1088:	ffe58593          	addi	a1,a1,-2 # 3ffffffe <__heap_start+0x3fffdffe>
    108c:	40e78633          	sub	a2,a5,a4
    1090:	40e60733          	sub	a4,a2,a4
    1094:	00d60633          	add	a2,a2,a3
    1098:	00171713          	slli	a4,a4,0x1
    109c:	40e60733          	sub	a4,a2,a4
    10a0:	40e787b3          	sub	a5,a5,a4
    10a4:	40e78633          	sub	a2,a5,a4
    10a8:	00161613          	slli	a2,a2,0x1
    10ac:	00d786b3          	add	a3,a5,a3
    10b0:	40c686b3          	sub	a3,a3,a2
    10b4:	00d787b3          	add	a5,a5,a3
    10b8:	40c787b3          	sub	a5,a5,a2
    10bc:	00a78633          	add	a2,a5,a0
    10c0:	fcc5f6e3          	bgeu	a1,a2,108c <main+0x48>
    10c4:	00001637          	lui	a2,0x1
    10c8:	1ce62e23          	sw	a4,476(a2) # 11dc <A>
    10cc:	00001737          	lui	a4,0x1
    10d0:	1cd72c23          	sw	a3,472(a4) # 11d8 <B>
    10d4:	00001737          	lui	a4,0x1
    10d8:	1cf72a23          	sw	a5,468(a4) # 11d4 <__bss_start>
    10dc:	000017b7          	lui	a5,0x1
    10e0:	1dc7a503          	lw	a0,476(a5) # 11dc <A>
    10e4:	f1dff0ef          	jal	ra,1000 <printInt>
    10e8:	000017b7          	lui	a5,0x1
    10ec:	1d87a503          	lw	a0,472(a5) # 11d8 <B>
    10f0:	f11ff0ef          	jal	ra,1000 <printInt>
    10f4:	000017b7          	lui	a5,0x1
    10f8:	1d47a503          	lw	a0,468(a5) # 11d4 <__bss_start>
    10fc:	f05ff0ef          	jal	ra,1000 <printInt>
    1100:	0fd00593          	li	a1,253
    1104:	000017b7          	lui	a5,0x1
    1108:	1e07a503          	lw	a0,480(a5) # 11e0 <__bss_end>
    110c:	094000ef          	jal	ra,11a0 <__modsi3>
    1110:	00c12083          	lw	ra,12(sp)
    1114:	01010113          	addi	sp,sp,16
    1118:	00008067          	ret

0000111c <__divsi3>:
    111c:	06054063          	bltz	a0,117c <__umodsi3+0x10>
    1120:	0605c663          	bltz	a1,118c <__umodsi3+0x20>

00001124 <__udivsi3>:
    1124:	00058613          	mv	a2,a1
    1128:	00050593          	mv	a1,a0
    112c:	fff00513          	li	a0,-1
    1130:	02060c63          	beqz	a2,1168 <__udivsi3+0x44>
    1134:	00100693          	li	a3,1
    1138:	00b67a63          	bgeu	a2,a1,114c <__udivsi3+0x28>
    113c:	00c05863          	blez	a2,114c <__udivsi3+0x28>
    1140:	00161613          	slli	a2,a2,0x1
    1144:	00169693          	slli	a3,a3,0x1
    1148:	feb66ae3          	bltu	a2,a1,113c <__udivsi3+0x18>
    114c:	00000513          	li	a0,0
    1150:	00c5e663          	bltu	a1,a2,115c <__udivsi3+0x38>
    1154:	40c585b3          	sub	a1,a1,a2
    1158:	00d56533          	or	a0,a0,a3
    115c:	0016d693          	srli	a3,a3,0x1
    1160:	00165613          	srli	a2,a2,0x1
    1164:	fe0696e3          	bnez	a3,1150 <__udivsi3+0x2c>
    1168:	00008067          	ret

0000116c <__umodsi3>:
    116c:	00008293          	mv	t0,ra
    1170:	fb5ff0ef          	jal	ra,1124 <__udivsi3>
    1174:	00058513          	mv	a0,a1
    1178:	00028067          	jr	t0
    117c:	40a00533          	neg	a0,a0
    1180:	0005d863          	bgez	a1,1190 <__umodsi3+0x24>
    1184:	40b005b3          	neg	a1,a1
    1188:	f9dff06f          	j	1124 <__udivsi3>
    118c:	40b005b3          	neg	a1,a1
    1190:	00008293          	mv	t0,ra
    1194:	f91ff0ef          	jal	ra,1124 <__udivsi3>
    1198:	40a00533          	neg	a0,a0
    119c:	00028067          	jr	t0

000011a0 <__modsi3>:
    11a0:	00008293          	mv	t0,ra
    11a4:	0005ca63          	bltz	a1,11b8 <__modsi3+0x18>
    11a8:	00054c63          	bltz	a0,11c0 <__modsi3+0x20>
    11ac:	f79ff0ef          	jal	ra,1124 <__udivsi3>
    11b0:	00058513          	mv	a0,a1
    11b4:	00028067          	jr	t0
    11b8:	40b005b3          	neg	a1,a1
    11bc:	fe0558e3          	bgez	a0,11ac <__modsi3+0xc>
    11c0:	40a00533          	neg	a0,a0
    11c4:	f61ff0ef          	jal	ra,1124 <__udivsi3>
    11c8:	40b00533          	neg	a0,a1
    11cc:	00028067          	jr	t0

Disassembly of section .srodata:

000011d0 <Mod>:
    11d0:	00fd                	addi	ra,ra,31
	...
