
./test/test.om:     file format elf32-littleriscv


Disassembly of section .rom:

00000000 <.rom>:
   0:	00020137          	lui	sp,0x20
   4:	040010ef          	jal	ra,1044 <main>
   8:	0ff00513          	li	a0,255
   c:	000306b7          	lui	a3,0x30
  10:	00a68223          	sb	a0,4(a3) # 30004 <__heap_start+0x2e004>
  14:	ff9ff06f          	j	c <printInt-0xff4>

Disassembly of section .text:

00001000 <printInt>:
    1000:	00001737          	lui	a4,0x1
    1004:	1e072783          	lw	a5,480(a4) # 11e0 <__bss_end>
    1008:	00f54533          	xor	a0,a0,a5
    100c:	0ad50513          	addi	a0,a0,173
    1010:	1ea72023          	sw	a0,480(a4)
    1014:	00008067          	ret

00001018 <printStr>:
    1018:	00054783          	lbu	a5,0(a0)
    101c:	02078263          	beqz	a5,1040 <printStr+0x28>
    1020:	00001737          	lui	a4,0x1
    1024:	1e072683          	lw	a3,480(a4) # 11e0 <__bss_end>
    1028:	00d7c7b3          	xor	a5,a5,a3
    102c:	20978793          	addi	a5,a5,521
    1030:	1ef72023          	sw	a5,480(a4)
    1034:	00150513          	addi	a0,a0,1
    1038:	00054783          	lbu	a5,0(a0)
    103c:	fe0794e3          	bnez	a5,1024 <printStr+0xc>
    1040:	00008067          	ret

00001044 <main>:
    1044:	ff010113          	addi	sp,sp,-16 # 1fff0 <__heap_start+0x1dff0>
    1048:	00112623          	sw	ra,12(sp)
    104c:	000017b7          	lui	a5,0x1
    1050:	1d47a783          	lw	a5,468(a5) # 11d4 <__bss_start>
    1054:	20000737          	lui	a4,0x20000
    1058:	fff70713          	addi	a4,a4,-1 # 1fffffff <__heap_start+0x1fffdfff>
    105c:	00e78733          	add	a4,a5,a4
    1060:	400006b7          	lui	a3,0x40000
    1064:	ffe68693          	addi	a3,a3,-2 # 3ffffffe <__heap_start+0x3fffdffe>
    1068:	06e6ea63          	bltu	a3,a4,10dc <main+0x98>
    106c:	00001737          	lui	a4,0x1
    1070:	1dc72703          	lw	a4,476(a4) # 11dc <A>
    1074:	000016b7          	lui	a3,0x1
    1078:	1d86a683          	lw	a3,472(a3) # 11d8 <B>
    107c:	20000537          	lui	a0,0x20000
    1080:	fff50513          	addi	a0,a0,-1 # 1fffffff <__heap_start+0x1fffdfff>
    1084:	400005b7          	lui	a1,0x40000
    1088:	ffe58593          	addi	a1,a1,-2 # 3ffffffe <__heap_start+0x3fffdffe>
    108c:	40e78633          	sub	a2,a5,a4
    1090:	40e60733          	sub	a4,a2,a4
    1094:	00d60633          	add	a2,a2,a3
    1098:	00171713          	slli	a4,a4,0x1
    109c:	40e60733          	sub	a4,a2,a4
    10a0:	40e787b3          	sub	a5,a5,a4
    10a4:	40e78633          	sub	a2,a5,a4
    10a8:	00161613          	slli	a2,a2,0x1
    10ac:	00d786b3          	add	a3,a5,a3
    10b0:	40c686b3          	sub	a3,a3,a2
    10b4:	00d787b3          	add	a5,a5,a3
    10b8:	40c787b3          	sub	a5,a5,a2
    10bc:	00a78633          	add	a2,a5,a0
    10c0:	fcc5f6e3          	bgeu	a1,a2,108c <main+0x48>
    10c4:	00001637          	lui	a2,0x1
    10c8:	1ce62e23          	sw	a4,476(a2) # 11dc <A>
    10cc:	00001737          	lui	a4,0x1
    10d0:	1cd72c23          	sw	a3,472(a4) # 11d8 <B>
    10d4:	00001737          	lui	a4,0x1
    10d8:	1cf72a23          	sw	a5,468(a4) # 11d4 <__bss_start>
    10dc:	000017b7          	lui	a5,0x1
    10e0:	1dc7a503          	lw	a0,476(a5) # 11dc <A>
    10e4:	f1dff0ef          	jal	ra,1000 <printInt>
    10e8:	000017b7          	lui	a5,0x1
    10ec:	1d87a503          	lw	a0,472(a5) # 11d8 <B>
    10f0:	f11ff0ef          	jal	ra,1000 <printInt>
    10f4:	000017b7          	lui	a5,0x1
    10f8:	1d47a503          	lw	a0,468(a5) # 11d4 <__bss_start>
    10fc:	f05ff0ef          	jal	ra,1000 <printInt>
    1100:	0fd00593          	li	a1,253
    1104:	000017b7          	lui	a5,0x1
    1108:	1e07a503          	lw	a0,480(a5) # 11e0 <__bss_end>
    110c:	094000ef          	jal	ra,11a0 <__modsi3>
    1110:	00c12083          	lw	ra,12(sp)
    1114:	01010113          	addi	sp,sp,16
    1118:	00008067          	ret

0000111c <__divsi3>:
    111c:	06054063          	bltz	a0,117c <__umodsi3+0x10>
    1120:	0605c663          	bltz	a1,118c <__umodsi3+0x20>

00001124 <__udivsi3>:
    1124:	00058613          	mv	a2,a1
    1128:	00050593          	mv	a1,a0
    112c:	fff00513          	li	a0,-1
    1130:	02060c63          	beqz	a2,1168 <__udivsi3+0x44>
    1134:	00100693          	li	a3,1
    1138:	00b67a63          	bgeu	a2,a1,114c <__udivsi3+0x28>
    113c:	00c05863          	blez	a2,114c <__udivsi3+0x28>
    1140:	00161613          	slli	a2,a2,0x1
    1144:	00169693          	slli	a3,a3,0x1
    1148:	feb66ae3          	bltu	a2,a1,113c <__udivsi3+0x18>
    114c:	00000513          	li	a0,0
    1150:	00c5e663          	bltu	a1,a2,115c <__udivsi3+0x38>
    1154:	40c585b3          	sub	a1,a1,a2
    1158:	00d56533          	or	a0,a0,a3
    115c:	0016d693          	srli	a3,a3,0x1
    1160:	00165613          	srli	a2,a2,0x1
    1164:	fe0696e3          	bnez	a3,1150 <__udivsi3+0x2c>
    1168:	00008067          	ret

0000116c <__umodsi3>:
    116c:	00008293          	mv	t0,ra
    1170:	fb5ff0ef          	jal	ra,1124 <__udivsi3>
    1174:	00058513          	mv	a0,a1
    1178:	00028067          	jr	t0
    117c:	40a00533          	neg	a0,a0
    1180:	0005d863          	bgez	a1,1190 <__umodsi3+0x24>
    1184:	40b005b3          	neg	a1,a1
    1188:	f9dff06f          	j	1124 <__udivsi3>
    118c:	40b005b3          	neg	a1,a1
    1190:	00008293          	mv	t0,ra
    1194:	f91ff0ef          	jal	ra,1124 <__udivsi3>
    1198:	40a00533          	neg	a0,a0
    119c:	00028067          	jr	t0

000011a0 <__modsi3>:
    11a0:	00008293          	mv	t0,ra
    11a4:	0005ca63          	bltz	a1,11b8 <__modsi3+0x18>
    11a8:	00054c63          	bltz	a0,11c0 <__modsi3+0x20>
    11ac:	f79ff0ef          	jal	ra,1124 <__udivsi3>
    11b0:	00058513          	mv	a0,a1
    11b4:	00028067          	jr	t0
    11b8:	40b005b3          	neg	a1,a1
    11bc:	fe0558e3          	bgez	a0,11ac <__modsi3+0xc>
    11c0:	40a00533          	neg	a0,a0
    11c4:	f61ff0ef          	jal	ra,1124 <__udivsi3>
    11c8:	40b00533          	neg	a0,a1
    11cc:	00028067          	jr	t0

Disassembly of section .srodata:

000011d0 <Mod>:
    11d0:	00fd                	addi	ra,ra,31
	...

Disassembly of section .sdata:

000011d4 <C>:
    11d4:	0001                	nop
	...

000011d8 <B>:
    11d8:	0001                	nop
	...

000011dc <A>:
    11dc:	0001                	nop
	...

Disassembly of section .sbss:

000011e0 <judgeResult>:
    11e0:	0000                	unimp
	...

Disassembly of section .comment:

00000000 <.comment>:
   0:	3a434347          	fmsub.d	ft6,ft6,ft4,ft7,rmm
   4:	2820                	fld	fs0,80(s0)
   6:	29554e47          	fmsub.s	ft8,fa0,fs5,ft5,rmm
   a:	3820                	fld	fs0,112(s0)
   c:	332e                	fld	ft6,232(sp)
   e:	302e                	fld	ft0,232(sp)
	...

Disassembly of section .debug_line:

00000000 <.debug_line>:
   0:	0164                	addi	s1,sp,140
   2:	0000                	unimp
   4:	0002                	c.slli64	zero
   6:	0045                	c.nop	17
   8:	0000                	unimp
   a:	0101                	addi	sp,sp,0
   c:	000d0efb          	0xd0efb
  10:	0101                	addi	sp,sp,0
  12:	0101                	addi	sp,sp,0
  14:	0000                	unimp
  16:	0100                	addi	s0,sp,128
  18:	0000                	unimp
  1a:	2e01                	jal	32a <printInt-0xcd6>
  1c:	2f2e                	fld	ft10,200(sp)
  1e:	2e2e                	fld	ft8,200(sp)
  20:	2f2e2e2f          	0x2f2e2e2f
  24:	2f2e                	fld	ft10,200(sp)
  26:	6972                	flw	fs2,28(sp)
  28:	2d766373          	csrrsi	t1,0x2d7,12
  2c:	2f636367          	0x2f636367
  30:	696c                	flw	fa1,84(a0)
  32:	6762                	flw	fa4,24(sp)
  34:	632f6363          	bltu	t5,s2,65a <printInt-0x9a6>
  38:	69666e6f          	jal	t3,666ce <__heap_start+0x646ce>
  3c:	69722f67          	0x69722f67
  40:	00766373          	csrrsi	t1,0x7,12
  44:	6400                	flw	fs0,8(s0)
  46:	7669                	lui	a2,0xffffa
  48:	532e                	lw	t1,232(sp)
  4a:	0100                	addi	s0,sp,128
  4c:	0000                	unimp
  4e:	0000                	unimp
  50:	0205                	addi	tp,tp,1
  52:	111c                	addi	a5,sp,160
  54:	0000                	unimp
  56:	0100c403          	lbu	s0,16(ra)
  5a:	04090103          	lb	sp,64(s2)
  5e:	0100                	addi	s0,sp,128
  60:	04090403          	lb	s0,64(s2)
  64:	0100                	addi	s0,sp,128
  66:	04090103          	lb	sp,64(s2)
  6a:	0100                	addi	s0,sp,128
  6c:	04090103          	lb	sp,64(s2)
  70:	0100                	addi	s0,sp,128
  72:	04090103          	lb	sp,64(s2)
  76:	0100                	addi	s0,sp,128
  78:	04090103          	lb	sp,64(s2)
  7c:	0100                	addi	s0,sp,128
  7e:	04090103          	lb	sp,64(s2)
  82:	0100                	addi	s0,sp,128
  84:	04090203          	lb	tp,64(s2)
  88:	0100                	addi	s0,sp,128
  8a:	04090103          	lb	sp,64(s2)
  8e:	0100                	addi	s0,sp,128
  90:	04090103          	lb	sp,64(s2)
  94:	0100                	addi	s0,sp,128
  96:	04090103          	lb	sp,64(s2)
  9a:	0100                	addi	s0,sp,128
  9c:	04090203          	lb	tp,64(s2)
  a0:	0100                	addi	s0,sp,128
  a2:	04090203          	lb	tp,64(s2)
  a6:	0100                	addi	s0,sp,128
  a8:	04090103          	lb	sp,64(s2)
  ac:	0100                	addi	s0,sp,128
  ae:	04090103          	lb	sp,64(s2)
  b2:	0100                	addi	s0,sp,128
  b4:	04090203          	lb	tp,64(s2)
  b8:	0100                	addi	s0,sp,128
  ba:	04090103          	lb	sp,64(s2)
  be:	0100                	addi	s0,sp,128
  c0:	04090103          	lb	sp,64(s2)
  c4:	0100                	addi	s0,sp,128
  c6:	04090203          	lb	tp,64(s2)
  ca:	0100                	addi	s0,sp,128
  cc:	04090503          	lb	a0,64(s2)
  d0:	0100                	addi	s0,sp,128
  d2:	04090103          	lb	sp,64(s2)
  d6:	0100                	addi	s0,sp,128
  d8:	04090103          	lb	sp,64(s2)
  dc:	0100                	addi	s0,sp,128
  de:	04090103          	lb	sp,64(s2)
  e2:	0100                	addi	s0,sp,128
  e4:	04090503          	lb	a0,64(s2)
  e8:	0100                	addi	s0,sp,128
  ea:	04090103          	lb	sp,64(s2)
  ee:	0100                	addi	s0,sp,128
  f0:	04090103          	lb	sp,64(s2)
  f4:	0100                	addi	s0,sp,128
  f6:	04090103          	lb	sp,64(s2)
  fa:	0100                	addi	s0,sp,128
  fc:	04090203          	lb	tp,64(s2)
 100:	0100                	addi	s0,sp,128
 102:	04090203          	lb	tp,64(s2)
 106:	0100                	addi	s0,sp,128
 108:	04090103          	lb	sp,64(s2)
 10c:	0100                	addi	s0,sp,128
 10e:	04090103          	lb	sp,64(s2)
 112:	0100                	addi	s0,sp,128
 114:	04090103          	lb	sp,64(s2)
 118:	0100                	addi	s0,sp,128
 11a:	04090403          	lb	s0,64(s2)
 11e:	0100                	addi	s0,sp,128
 120:	04090103          	lb	sp,64(s2)
 124:	0100                	addi	s0,sp,128
 126:	04090103          	lb	sp,64(s2)
 12a:	0100                	addi	s0,sp,128
 12c:	04090203          	lb	tp,64(s2)
 130:	0100                	addi	s0,sp,128
 132:	04090103          	lb	sp,64(s2)
 136:	0100                	addi	s0,sp,128
 138:	04090103          	lb	sp,64(s2)
 13c:	0100                	addi	s0,sp,128
 13e:	04090203          	lb	tp,64(s2)
 142:	0100                	addi	s0,sp,128
 144:	04090103          	lb	sp,64(s2)
 148:	0100                	addi	s0,sp,128
 14a:	04090203          	lb	tp,64(s2)
 14e:	0100                	addi	s0,sp,128
 150:	04090103          	lb	sp,64(s2)
 154:	0100                	addi	s0,sp,128
 156:	04090103          	lb	sp,64(s2)
 15a:	0100                	addi	s0,sp,128
 15c:	04090103          	lb	sp,64(s2)
 160:	0100                	addi	s0,sp,128
 162:	0409                	addi	s0,s0,2
 164:	0000                	unimp
 166:	0101                	addi	sp,sp,0

Disassembly of section .debug_info:

00000000 <.debug_info>:
   0:	0022                	c.slli	zero,0x8
   2:	0000                	unimp
   4:	0002                	c.slli64	zero
   6:	0000                	unimp
   8:	0000                	unimp
   a:	0104                	addi	s1,sp,128
   c:	0000                	unimp
   e:	0000                	unimp
  10:	111c                	addi	a5,sp,160
  12:	0000                	unimp
  14:	11d0                	addi	a2,sp,228
  16:	0000                	unimp
  18:	0000                	unimp
  1a:	0000                	unimp
  1c:	0000002f          	0x2f
  20:	0088                	addi	a0,sp,64
  22:	0000                	unimp
  24:	8001                	c.srli64	s0

Disassembly of section .debug_abbrev:

00000000 <.debug_abbrev>:
   0:	1101                	addi	sp,sp,-32
   2:	1000                	addi	s0,sp,32
   4:	1106                	slli	sp,sp,0x21
   6:	1201                	addi	tp,tp,-32
   8:	0301                	addi	t1,t1,0
   a:	1b0e                	slli	s6,s6,0x23
   c:	250e                	fld	fa0,192(sp)
   e:	130e                	slli	t1,t1,0x23
  10:	0005                	c.nop	1
	...

Disassembly of section .debug_aranges:

00000000 <.debug_aranges>:
   0:	001c                	0x1c
   2:	0000                	unimp
   4:	0002                	c.slli64	zero
   6:	0000                	unimp
   8:	0000                	unimp
   a:	0004                	0x4
   c:	0000                	unimp
   e:	0000                	unimp
  10:	111c                	addi	a5,sp,160
  12:	0000                	unimp
  14:	00b4                	addi	a3,sp,72
	...

Disassembly of section .debug_str:

00000000 <.debug_str>:
   0:	2e2e                	fld	ft8,200(sp)
   2:	2f2e2e2f          	0x2f2e2e2f
   6:	2e2e                	fld	ft8,200(sp)
   8:	722f2e2f          	0x722f2e2f
   c:	7369                	lui	t1,0xffffa
   e:	672d7663          	bgeu	s10,s2,67a <printInt-0x986>
  12:	6c2f6363          	bltu	t5,sp,6d8 <printInt-0x928>
  16:	6269                	lui	tp,0x1a
  18:	2f636367          	0x2f636367
  1c:	666e6f63          	bltu	t3,t1,69a <printInt-0x966>
  20:	6769                	lui	a4,0x1a
  22:	7369722f          	0x7369722f
  26:	642f7663          	bgeu	t5,sp,672 <printInt-0x98e>
  2a:	7669                	lui	a2,0xffffa
  2c:	532e                	lw	t1,232(sp)
  2e:	2f00                	fld	fs0,24(a4)
  30:	6f68                	flw	fa0,92(a4)
  32:	656d                	lui	a0,0x1b
  34:	2d75772f          	0x2d75772f
  38:	6971                	lui	s2,0x1c
  3a:	676e                	flw	fa4,216(sp)
  3c:	312d                	jal	fffffc66 <__heap_start+0xffffdc66>
  3e:	3735                	jal	ffffff6a <__heap_start+0xffffdf6a>
  40:	7369722f          	0x7369722f
  44:	672d7663          	bgeu	s10,s2,6b0 <printInt-0x950>
  48:	756e                	flw	fa0,248(sp)
  4a:	742d                	lui	s0,0xfffeb
  4c:	636c6f6f          	jal	t5,c6682 <__heap_start+0xc4682>
  50:	6168                	flw	fa0,68(a0)
  52:	6e69                	lui	t3,0x1a
  54:	6975622f          	0x6975622f
  58:	646c                	flw	fa1,76(s0)
  5a:	672d                	lui	a4,0xb
  5c:	6e2d6363          	bltu	s10,sp,742 <printInt-0x8be>
  60:	7765                	lui	a4,0xffff9
  62:	696c                	flw	fa1,84(a0)
  64:	2d62                	fld	fs10,24(sp)
  66:	67617473          	csrrci	s0,0x676,2
  6a:	3265                	jal	fffffa12 <__heap_start+0xffffda12>
  6c:	7369722f          	0x7369722f
  70:	32337663          	bgeu	t1,gp,39c <printInt-0xc64>
  74:	752d                	lui	a0,0xfffeb
  76:	6b6e                	flw	fs6,216(sp)
  78:	6f6e                	flw	ft10,216(sp)
  7a:	652d6e77          	0x652d6e77
  7e:	666c                	flw	fa1,76(a2)
  80:	62696c2f          	0x62696c2f
  84:	00636367          	0x636367
  88:	20554e47          	fmsub.s	ft8,fa0,ft5,ft4,rmm
  8c:	5341                	li	t1,-16
  8e:	3220                	fld	fs0,96(a2)
  90:	332e                	fld	ft6,232(sp)
  92:	2e31                	jal	3ae <printInt-0xc52>
  94:	0031                	c.nop	12
