
./test/test.om:     file format elf32-littleriscv


Disassembly of section .rom:

00000000 <.rom>:
   0:	00020137          	lui	sp,0x20
   4:	2a4010ef          	jal	ra,12a8 <main>
   8:	0ff00513          	li	a0,255
   c:	000306b7          	lui	a3,0x30
  10:	00a68223          	sb	a0,4(a3) # 30004 <__heap_start+0x2b004>
  14:	ff9ff06f          	j	c <printInt-0xff4>

Disassembly of section .text:

00001000 <printInt>:
    1000:	00004737          	lui	a4,0x4
    1004:	24c72783          	lw	a5,588(a4) # 424c <__bss_end>
    1008:	00f54533          	xor	a0,a0,a5
    100c:	0ad50513          	addi	a0,a0,173
    1010:	24a72623          	sw	a0,588(a4)
    1014:	00008067          	ret

00001018 <printStr>:
    1018:	00054783          	lbu	a5,0(a0)
    101c:	02078263          	beqz	a5,1040 <printStr+0x28>
    1020:	00004737          	lui	a4,0x4
    1024:	24c72683          	lw	a3,588(a4) # 424c <__bss_end>
    1028:	00d7c7b3          	xor	a5,a5,a3
    102c:	20978793          	addi	a5,a5,521
    1030:	24f72623          	sw	a5,588(a4)
    1034:	00150513          	addi	a0,a0,1
    1038:	00054783          	lbu	a5,0(a0)
    103c:	fe0794e3          	bnez	a5,1024 <printStr+0xc>
    1040:	00008067          	ret

00001044 <f>:
    1044:	fe010113          	addi	sp,sp,-32 # 1ffe0 <__heap_start+0x1afe0>
    1048:	00112e23          	sw	ra,28(sp)
    104c:	00812c23          	sw	s0,24(sp)
    1050:	00912a23          	sw	s1,20(sp)
    1054:	01212823          	sw	s2,16(sp)
    1058:	01312623          	sw	s3,12(sp)
    105c:	00058493          	mv	s1,a1
    1060:	00060413          	mv	s0,a2
    1064:	00050593          	mv	a1,a0
    1068:	408020ef          	jal	ra,3470 <__mulsf3>
    106c:	00050913          	mv	s2,a0
    1070:	000047b7          	lui	a5,0x4
    1074:	1ec7a583          	lw	a1,492(a5) # 41ec <Mod+0x4>
    1078:	00048513          	mv	a0,s1
    107c:	3f4020ef          	jal	ra,3470 <__mulsf3>
    1080:	00048593          	mv	a1,s1
    1084:	3ec020ef          	jal	ra,3470 <__mulsf3>
    1088:	00090593          	mv	a1,s2
    108c:	261010ef          	jal	ra,2aec <__addsf3>
    1090:	00050993          	mv	s3,a0
    1094:	00040593          	mv	a1,s0
    1098:	00040513          	mv	a0,s0
    109c:	3d4020ef          	jal	ra,3470 <__mulsf3>
    10a0:	00050593          	mv	a1,a0
    10a4:	00098513          	mv	a0,s3
    10a8:	245010ef          	jal	ra,2aec <__addsf3>
    10ac:	000047b7          	lui	a5,0x4
    10b0:	1f07a583          	lw	a1,496(a5) # 41f0 <Mod+0x8>
    10b4:	6dc020ef          	jal	ra,3790 <__subsf3>
    10b8:	00050993          	mv	s3,a0
    10bc:	00050593          	mv	a1,a0
    10c0:	3b0020ef          	jal	ra,3470 <__mulsf3>
    10c4:	00098593          	mv	a1,s3
    10c8:	3a8020ef          	jal	ra,3470 <__mulsf3>
    10cc:	00050993          	mv	s3,a0
    10d0:	00040593          	mv	a1,s0
    10d4:	00090513          	mv	a0,s2
    10d8:	398020ef          	jal	ra,3470 <__mulsf3>
    10dc:	00040593          	mv	a1,s0
    10e0:	390020ef          	jal	ra,3470 <__mulsf3>
    10e4:	00040593          	mv	a1,s0
    10e8:	388020ef          	jal	ra,3470 <__mulsf3>
    10ec:	00050593          	mv	a1,a0
    10f0:	00098513          	mv	a0,s3
    10f4:	69c020ef          	jal	ra,3790 <__subsf3>
    10f8:	00050913          	mv	s2,a0
    10fc:	000047b7          	lui	a5,0x4
    1100:	1f47a583          	lw	a1,500(a5) # 41f4 <Mod+0xc>
    1104:	00048513          	mv	a0,s1
    1108:	368020ef          	jal	ra,3470 <__mulsf3>
    110c:	00048593          	mv	a1,s1
    1110:	360020ef          	jal	ra,3470 <__mulsf3>
    1114:	00040593          	mv	a1,s0
    1118:	358020ef          	jal	ra,3470 <__mulsf3>
    111c:	00040593          	mv	a1,s0
    1120:	350020ef          	jal	ra,3470 <__mulsf3>
    1124:	00040593          	mv	a1,s0
    1128:	348020ef          	jal	ra,3470 <__mulsf3>
    112c:	00050593          	mv	a1,a0
    1130:	00090513          	mv	a0,s2
    1134:	65c020ef          	jal	ra,3790 <__subsf3>
    1138:	01c12083          	lw	ra,28(sp)
    113c:	01812403          	lw	s0,24(sp)
    1140:	01412483          	lw	s1,20(sp)
    1144:	01012903          	lw	s2,16(sp)
    1148:	00c12983          	lw	s3,12(sp)
    114c:	02010113          	addi	sp,sp,32
    1150:	00008067          	ret

00001154 <h>:
    1154:	fe010113          	addi	sp,sp,-32
    1158:	00112e23          	sw	ra,28(sp)
    115c:	00812c23          	sw	s0,24(sp)
    1160:	00912a23          	sw	s1,20(sp)
    1164:	01212823          	sw	s2,16(sp)
    1168:	01312623          	sw	s3,12(sp)
    116c:	00050913          	mv	s2,a0
    1170:	00058493          	mv	s1,a1
    1174:	000047b7          	lui	a5,0x4
    1178:	1f07a403          	lw	s0,496(a5) # 41f0 <Mod+0x8>
    117c:	000047b7          	lui	a5,0x4
    1180:	1f87a983          	lw	s3,504(a5) # 41f8 <Mod+0x10>
    1184:	00048613          	mv	a2,s1
    1188:	00040593          	mv	a1,s0
    118c:	00090513          	mv	a0,s2
    1190:	eb5ff0ef          	jal	ra,1044 <f>
    1194:	00000593          	li	a1,0
    1198:	224020ef          	jal	ra,33bc <__lesf2>
    119c:	02a05263          	blez	a0,11c0 <h+0x6c>
    11a0:	00098593          	mv	a1,s3
    11a4:	00040513          	mv	a0,s0
    11a8:	5e8020ef          	jal	ra,3790 <__subsf3>
    11ac:	00050413          	mv	s0,a0
    11b0:	00000593          	li	a1,0
    11b4:	154020ef          	jal	ra,3308 <__gesf2>
    11b8:	fc0556e3          	bgez	a0,1184 <h+0x30>
    11bc:	00000413          	li	s0,0
    11c0:	00040513          	mv	a0,s0
    11c4:	01c12083          	lw	ra,28(sp)
    11c8:	01812403          	lw	s0,24(sp)
    11cc:	01412483          	lw	s1,20(sp)
    11d0:	01012903          	lw	s2,16(sp)
    11d4:	00c12983          	lw	s3,12(sp)
    11d8:	02010113          	addi	sp,sp,32
    11dc:	00008067          	ret

000011e0 <mysqrt>:
    11e0:	fe010113          	addi	sp,sp,-32
    11e4:	00112e23          	sw	ra,28(sp)
    11e8:	00812c23          	sw	s0,24(sp)
    11ec:	00912a23          	sw	s1,20(sp)
    11f0:	01212823          	sw	s2,16(sp)
    11f4:	01312623          	sw	s3,12(sp)
    11f8:	01412423          	sw	s4,8(sp)
    11fc:	01512223          	sw	s5,4(sp)
    1200:	00050993          	mv	s3,a0
    1204:	00000593          	li	a1,0
    1208:	094020ef          	jal	ra,329c <__eqsf2>
    120c:	08050a63          	beqz	a0,12a0 <mysqrt+0xc0>
    1210:	000047b7          	lui	a5,0x4
    1214:	1fc7a583          	lw	a1,508(a5) # 41fc <Mod+0x14>
    1218:	00098513          	mv	a0,s3
    121c:	254020ef          	jal	ra,3470 <__mulsf3>
    1220:	22d020ef          	jal	ra,3c4c <__extendsfdf2>
    1224:	00050413          	mv	s0,a0
    1228:	00058493          	mv	s1,a1
    122c:	03200913          	li	s2,50
    1230:	000047b7          	lui	a5,0x4
    1234:	2207aa03          	lw	s4,544(a5) # 4220 <Mod+0x38>
    1238:	2247aa83          	lw	s5,548(a5)
    123c:	00098513          	mv	a0,s3
    1240:	20d020ef          	jal	ra,3c4c <__extendsfdf2>
    1244:	00040613          	mv	a2,s0
    1248:	00048693          	mv	a3,s1
    124c:	269000ef          	jal	ra,1cb4 <__divdf3>
    1250:	00040613          	mv	a2,s0
    1254:	00048693          	mv	a3,s1
    1258:	29c000ef          	jal	ra,14f4 <__adddf3>
    125c:	000a0613          	mv	a2,s4
    1260:	000a8693          	mv	a3,s5
    1264:	21c010ef          	jal	ra,2480 <__muldf3>
    1268:	00050413          	mv	s0,a0
    126c:	00058493          	mv	s1,a1
    1270:	fff90913          	addi	s2,s2,-1
    1274:	fc0914e3          	bnez	s2,123c <mysqrt+0x5c>
    1278:	2b1020ef          	jal	ra,3d28 <__truncdfsf2>
    127c:	01c12083          	lw	ra,28(sp)
    1280:	01812403          	lw	s0,24(sp)
    1284:	01412483          	lw	s1,20(sp)
    1288:	01012903          	lw	s2,16(sp)
    128c:	00c12983          	lw	s3,12(sp)
    1290:	00812a03          	lw	s4,8(sp)
    1294:	00412a83          	lw	s5,4(sp)
    1298:	02010113          	addi	sp,sp,32
    129c:	00008067          	ret
    12a0:	00000513          	li	a0,0
    12a4:	fd9ff06f          	j	127c <mysqrt+0x9c>

000012a8 <main>:
    12a8:	fa010113          	addi	sp,sp,-96
    12ac:	04112e23          	sw	ra,92(sp)
    12b0:	04812c23          	sw	s0,88(sp)
    12b4:	04912a23          	sw	s1,84(sp)
    12b8:	05212823          	sw	s2,80(sp)
    12bc:	05312623          	sw	s3,76(sp)
    12c0:	05412423          	sw	s4,72(sp)
    12c4:	05512223          	sw	s5,68(sp)
    12c8:	05612023          	sw	s6,64(sp)
    12cc:	03712e23          	sw	s7,60(sp)
    12d0:	03812c23          	sw	s8,56(sp)
    12d4:	03912a23          	sw	s9,52(sp)
    12d8:	03a12823          	sw	s10,48(sp)
    12dc:	03b12623          	sw	s11,44(sp)
    12e0:	03d00793          	li	a5,61
    12e4:	00f12a23          	sw	a5,20(sp)
    12e8:	000047b7          	lui	a5,0x4
    12ec:	2047a903          	lw	s2,516(a5) # 4204 <Mod+0x1c>
    12f0:	000047b7          	lui	a5,0x4
    12f4:	2007a783          	lw	a5,512(a5) # 4200 <Mod+0x18>
    12f8:	00f12c23          	sw	a5,24(sp)
    12fc:	00004b37          	lui	s6,0x4
    1300:	208b2d83          	lw	s11,520(s6) # 4208 <Mod+0x20>
    1304:	000047b7          	lui	a5,0x4
    1308:	20c7ad03          	lw	s10,524(a5) # 420c <Mod+0x24>
    130c:	000047b7          	lui	a5,0x4
    1310:	1f07a783          	lw	a5,496(a5) # 41f0 <Mod+0x8>
    1314:	00f12623          	sw	a5,12(sp)
    1318:	00004cb7          	lui	s9,0x4
    131c:	1fcca783          	lw	a5,508(s9) # 41fc <Mod+0x14>
    1320:	00f12823          	sw	a5,16(sp)
    1324:	000047b7          	lui	a5,0x4
    1328:	2147aa83          	lw	s5,532(a5) # 4214 <Mod+0x2c>
    132c:	000047b7          	lui	a5,0x4
    1330:	2187a783          	lw	a5,536(a5) # 4218 <Mod+0x30>
    1334:	00f12e23          	sw	a5,28(sp)
    1338:	1640006f          	j	149c <main+0x1f4>
    133c:	00090593          	mv	a1,s2
    1340:	00040513          	mv	a0,s0
    1344:	e11ff0ef          	jal	ra,1154 <h>
    1348:	00050993          	mv	s3,a0
    134c:	000d8593          	mv	a1,s11
    1350:	00040513          	mv	a0,s0
    1354:	798010ef          	jal	ra,2aec <__addsf3>
    1358:	00090593          	mv	a1,s2
    135c:	df9ff0ef          	jal	ra,1154 <h>
    1360:	00098593          	mv	a1,s3
    1364:	42c020ef          	jal	ra,3790 <__subsf3>
    1368:	00050a13          	mv	s4,a0
    136c:	208b2583          	lw	a1,520(s6)
    1370:	00090513          	mv	a0,s2
    1374:	778010ef          	jal	ra,2aec <__addsf3>
    1378:	00050593          	mv	a1,a0
    137c:	00040513          	mv	a0,s0
    1380:	dd5ff0ef          	jal	ra,1154 <h>
    1384:	00098593          	mv	a1,s3
    1388:	408020ef          	jal	ra,3790 <__subsf3>
    138c:	00050993          	mv	s3,a0
    1390:	000a0593          	mv	a1,s4
    1394:	000a0513          	mv	a0,s4
    1398:	0d8020ef          	jal	ra,3470 <__mulsf3>
    139c:	000d0593          	mv	a1,s10
    13a0:	74c010ef          	jal	ra,2aec <__addsf3>
    13a4:	00050b93          	mv	s7,a0
    13a8:	00098593          	mv	a1,s3
    13ac:	00098513          	mv	a0,s3
    13b0:	0c0020ef          	jal	ra,3470 <__mulsf3>
    13b4:	00050593          	mv	a1,a0
    13b8:	000b8513          	mv	a0,s7
    13bc:	730010ef          	jal	ra,2aec <__addsf3>
    13c0:	e21ff0ef          	jal	ra,11e0 <mysqrt>
    13c4:	00050b93          	mv	s7,a0
    13c8:	208b2583          	lw	a1,520(s6)
    13cc:	000a0513          	mv	a0,s4
    13d0:	71c010ef          	jal	ra,2aec <__addsf3>
    13d4:	00098593          	mv	a1,s3
    13d8:	3b8020ef          	jal	ra,3790 <__subsf3>
    13dc:	00050993          	mv	s3,a0
    13e0:	000b8593          	mv	a1,s7
    13e4:	00c12503          	lw	a0,12(sp)
    13e8:	331010ef          	jal	ra,2f18 <__divsf3>
    13ec:	00050593          	mv	a1,a0
    13f0:	00098513          	mv	a0,s3
    13f4:	07c020ef          	jal	ra,3470 <__mulsf3>
    13f8:	01012583          	lw	a1,16(sp)
    13fc:	074020ef          	jal	ra,3470 <__mulsf3>
    1400:	1fcca583          	lw	a1,508(s9)
    1404:	6e8010ef          	jal	ra,2aec <__addsf3>
    1408:	000c0593          	mv	a1,s8
    140c:	064020ef          	jal	ra,3470 <__mulsf3>
    1410:	7cc020ef          	jal	ra,3bdc <__fixsfsi>
    1414:	00251513          	slli	a0,a0,0x2
    1418:	000047b7          	lui	a5,0x4
    141c:	22878793          	addi	a5,a5,552 # 4228 <symbol>
    1420:	00a787b3          	add	a5,a5,a0
    1424:	0007a503          	lw	a0,0(a5)
    1428:	bf1ff0ef          	jal	ra,1018 <printStr>
    142c:	000a8593          	mv	a1,s5
    1430:	00040513          	mv	a0,s0
    1434:	6b8010ef          	jal	ra,2aec <__addsf3>
    1438:	00050413          	mv	s0,a0
    143c:	fff48493          	addi	s1,s1,-1
    1440:	02048863          	beqz	s1,1470 <main+0x1c8>
    1444:	00090613          	mv	a2,s2
    1448:	00000593          	li	a1,0
    144c:	00040513          	mv	a0,s0
    1450:	bf5ff0ef          	jal	ra,1044 <f>
    1454:	00000593          	li	a1,0
    1458:	765010ef          	jal	ra,33bc <__lesf2>
    145c:	eea050e3          	blez	a0,133c <main+0x94>
    1460:	00004537          	lui	a0,0x4
    1464:	1bc50513          	addi	a0,a0,444 # 41bc <__clz_tab+0x100>
    1468:	bb1ff0ef          	jal	ra,1018 <printStr>
    146c:	fc1ff06f          	j	142c <main+0x184>
    1470:	00004537          	lui	a0,0x4
    1474:	1c050513          	addi	a0,a0,448 # 41c0 <__clz_tab+0x104>
    1478:	ba1ff0ef          	jal	ra,1018 <printStr>
    147c:	01c12583          	lw	a1,28(sp)
    1480:	00090513          	mv	a0,s2
    1484:	30c020ef          	jal	ra,3790 <__subsf3>
    1488:	00050913          	mv	s2,a0
    148c:	01412783          	lw	a5,20(sp)
    1490:	fff78793          	addi	a5,a5,-1
    1494:	00f12a23          	sw	a5,20(sp)
    1498:	00078c63          	beqz	a5,14b0 <main+0x208>
    149c:	07900493          	li	s1,121
    14a0:	01812403          	lw	s0,24(sp)
    14a4:	000047b7          	lui	a5,0x4
    14a8:	2107ac03          	lw	s8,528(a5) # 4210 <Mod+0x28>
    14ac:	f99ff06f          	j	1444 <main+0x19c>
    14b0:	000047b7          	lui	a5,0x4
    14b4:	24c7a503          	lw	a0,588(a5) # 424c <__bss_end>
    14b8:	05c12083          	lw	ra,92(sp)
    14bc:	05812403          	lw	s0,88(sp)
    14c0:	05412483          	lw	s1,84(sp)
    14c4:	05012903          	lw	s2,80(sp)
    14c8:	04c12983          	lw	s3,76(sp)
    14cc:	04812a03          	lw	s4,72(sp)
    14d0:	04412a83          	lw	s5,68(sp)
    14d4:	04012b03          	lw	s6,64(sp)
    14d8:	03c12b83          	lw	s7,60(sp)
    14dc:	03812c03          	lw	s8,56(sp)
    14e0:	03412c83          	lw	s9,52(sp)
    14e4:	03012d03          	lw	s10,48(sp)
    14e8:	02c12d83          	lw	s11,44(sp)
    14ec:	06010113          	addi	sp,sp,96
    14f0:	00008067          	ret

000014f4 <__adddf3>:
    14f4:	00100837          	lui	a6,0x100
    14f8:	fff80813          	addi	a6,a6,-1 # fffff <__heap_start+0xfafff>
    14fc:	00b878b3          	and	a7,a6,a1
    1500:	00389893          	slli	a7,a7,0x3
    1504:	01d55793          	srli	a5,a0,0x1d
    1508:	fe010113          	addi	sp,sp,-32
    150c:	0145d713          	srli	a4,a1,0x14
    1510:	00d87833          	and	a6,a6,a3
    1514:	0117e7b3          	or	a5,a5,a7
    1518:	0146d893          	srli	a7,a3,0x14
    151c:	00381813          	slli	a6,a6,0x3
    1520:	00912a23          	sw	s1,20(sp)
    1524:	01212823          	sw	s2,16(sp)
    1528:	7ff77493          	andi	s1,a4,2047
    152c:	7ff8f893          	andi	a7,a7,2047
    1530:	01d65713          	srli	a4,a2,0x1d
    1534:	00112e23          	sw	ra,28(sp)
    1538:	00812c23          	sw	s0,24(sp)
    153c:	01312623          	sw	s3,12(sp)
    1540:	01f5d913          	srli	s2,a1,0x1f
    1544:	01f6d693          	srli	a3,a3,0x1f
    1548:	01076733          	or	a4,a4,a6
    154c:	00351513          	slli	a0,a0,0x3
    1550:	00361613          	slli	a2,a2,0x3
    1554:	41148833          	sub	a6,s1,a7
    1558:	2cd91463          	bne	s2,a3,1820 <__adddf3+0x32c>
    155c:	11005e63          	blez	a6,1678 <__adddf3+0x184>
    1560:	04089063          	bnez	a7,15a0 <__adddf3+0xac>
    1564:	00c766b3          	or	a3,a4,a2
    1568:	70068063          	beqz	a3,1c68 <__adddf3+0x774>
    156c:	fff80593          	addi	a1,a6,-1
    1570:	02059063          	bnez	a1,1590 <__adddf3+0x9c>
    1574:	00c50633          	add	a2,a0,a2
    1578:	00a63533          	sltu	a0,a2,a0
    157c:	00e787b3          	add	a5,a5,a4
    1580:	00a787b3          	add	a5,a5,a0
    1584:	00060513          	mv	a0,a2
    1588:	00100493          	li	s1,1
    158c:	0700006f          	j	15fc <__adddf3+0x108>
    1590:	7ff00693          	li	a3,2047
    1594:	02d81063          	bne	a6,a3,15b4 <__adddf3+0xc0>
    1598:	7ff00493          	li	s1,2047
    159c:	20c0006f          	j	17a8 <__adddf3+0x2b4>
    15a0:	7ff00693          	li	a3,2047
    15a4:	20d48263          	beq	s1,a3,17a8 <__adddf3+0x2b4>
    15a8:	008006b7          	lui	a3,0x800
    15ac:	00d76733          	or	a4,a4,a3
    15b0:	00080593          	mv	a1,a6
    15b4:	03800693          	li	a3,56
    15b8:	0ab6ca63          	blt	a3,a1,166c <__adddf3+0x178>
    15bc:	01f00693          	li	a3,31
    15c0:	06b6cc63          	blt	a3,a1,1638 <__adddf3+0x144>
    15c4:	02000813          	li	a6,32
    15c8:	40b80833          	sub	a6,a6,a1
    15cc:	010716b3          	sll	a3,a4,a6
    15d0:	00b658b3          	srl	a7,a2,a1
    15d4:	01061633          	sll	a2,a2,a6
    15d8:	0116e6b3          	or	a3,a3,a7
    15dc:	00c03633          	snez	a2,a2
    15e0:	00c6e633          	or	a2,a3,a2
    15e4:	00b75733          	srl	a4,a4,a1
    15e8:	00a60633          	add	a2,a2,a0
    15ec:	00f70733          	add	a4,a4,a5
    15f0:	00a637b3          	sltu	a5,a2,a0
    15f4:	00f707b3          	add	a5,a4,a5
    15f8:	00060513          	mv	a0,a2
    15fc:	00879713          	slli	a4,a5,0x8
    1600:	1a075463          	bgez	a4,17a8 <__adddf3+0x2b4>
    1604:	00148493          	addi	s1,s1,1
    1608:	7ff00713          	li	a4,2047
    160c:	5ce48463          	beq	s1,a4,1bd4 <__adddf3+0x6e0>
    1610:	ff8006b7          	lui	a3,0xff800
    1614:	fff68693          	addi	a3,a3,-1 # ff7fffff <__heap_start+0xff7fafff>
    1618:	00d7f6b3          	and	a3,a5,a3
    161c:	00155593          	srli	a1,a0,0x1
    1620:	00157513          	andi	a0,a0,1
    1624:	01f69793          	slli	a5,a3,0x1f
    1628:	00a5e533          	or	a0,a1,a0
    162c:	00a7e533          	or	a0,a5,a0
    1630:	0016d793          	srli	a5,a3,0x1
    1634:	1740006f          	j	17a8 <__adddf3+0x2b4>
    1638:	fe058693          	addi	a3,a1,-32
    163c:	02000893          	li	a7,32
    1640:	00d756b3          	srl	a3,a4,a3
    1644:	00000813          	li	a6,0
    1648:	01158863          	beq	a1,a7,1658 <__adddf3+0x164>
    164c:	04000813          	li	a6,64
    1650:	40b805b3          	sub	a1,a6,a1
    1654:	00b71833          	sll	a6,a4,a1
    1658:	00c86633          	or	a2,a6,a2
    165c:	00c03633          	snez	a2,a2
    1660:	00c6e633          	or	a2,a3,a2
    1664:	00000713          	li	a4,0
    1668:	f81ff06f          	j	15e8 <__adddf3+0xf4>
    166c:	00c76633          	or	a2,a4,a2
    1670:	00c03633          	snez	a2,a2
    1674:	ff1ff06f          	j	1664 <__adddf3+0x170>
    1678:	0e080263          	beqz	a6,175c <__adddf3+0x268>
    167c:	409885b3          	sub	a1,a7,s1
    1680:	02049e63          	bnez	s1,16bc <__adddf3+0x1c8>
    1684:	00a7e6b3          	or	a3,a5,a0
    1688:	52068663          	beqz	a3,1bb4 <__adddf3+0x6c0>
    168c:	fff58693          	addi	a3,a1,-1
    1690:	00069c63          	bnez	a3,16a8 <__adddf3+0x1b4>
    1694:	00c50533          	add	a0,a0,a2
    1698:	00e787b3          	add	a5,a5,a4
    169c:	00c53633          	sltu	a2,a0,a2
    16a0:	00c787b3          	add	a5,a5,a2
    16a4:	ee5ff06f          	j	1588 <__adddf3+0x94>
    16a8:	7ff00813          	li	a6,2047
    16ac:	03059263          	bne	a1,a6,16d0 <__adddf3+0x1dc>
    16b0:	00070793          	mv	a5,a4
    16b4:	00060513          	mv	a0,a2
    16b8:	ee1ff06f          	j	1598 <__adddf3+0xa4>
    16bc:	7ff00693          	li	a3,2047
    16c0:	fed888e3          	beq	a7,a3,16b0 <__adddf3+0x1bc>
    16c4:	008006b7          	lui	a3,0x800
    16c8:	00d7e7b3          	or	a5,a5,a3
    16cc:	00058693          	mv	a3,a1
    16d0:	03800593          	li	a1,56
    16d4:	06d5ce63          	blt	a1,a3,1750 <__adddf3+0x25c>
    16d8:	01f00593          	li	a1,31
    16dc:	04d5c063          	blt	a1,a3,171c <__adddf3+0x228>
    16e0:	02000813          	li	a6,32
    16e4:	40d80833          	sub	a6,a6,a3
    16e8:	00d55333          	srl	t1,a0,a3
    16ec:	010795b3          	sll	a1,a5,a6
    16f0:	01051533          	sll	a0,a0,a6
    16f4:	0065e5b3          	or	a1,a1,t1
    16f8:	00a03533          	snez	a0,a0
    16fc:	00a5e533          	or	a0,a1,a0
    1700:	00d7d6b3          	srl	a3,a5,a3
    1704:	00c50533          	add	a0,a0,a2
    1708:	00e687b3          	add	a5,a3,a4
    170c:	00c53633          	sltu	a2,a0,a2
    1710:	00c787b3          	add	a5,a5,a2
    1714:	00088493          	mv	s1,a7
    1718:	ee5ff06f          	j	15fc <__adddf3+0x108>
    171c:	fe068593          	addi	a1,a3,-32 # 7fffe0 <__heap_start+0x7fafe0>
    1720:	02000313          	li	t1,32
    1724:	00b7d5b3          	srl	a1,a5,a1
    1728:	00000813          	li	a6,0
    172c:	00668863          	beq	a3,t1,173c <__adddf3+0x248>
    1730:	04000813          	li	a6,64
    1734:	40d806b3          	sub	a3,a6,a3
    1738:	00d79833          	sll	a6,a5,a3
    173c:	00a86533          	or	a0,a6,a0
    1740:	00a03533          	snez	a0,a0
    1744:	00a5e533          	or	a0,a1,a0
    1748:	00000693          	li	a3,0
    174c:	fb9ff06f          	j	1704 <__adddf3+0x210>
    1750:	00a7e533          	or	a0,a5,a0
    1754:	00a03533          	snez	a0,a0
    1758:	ff1ff06f          	j	1748 <__adddf3+0x254>
    175c:	00148693          	addi	a3,s1,1
    1760:	7fe6f593          	andi	a1,a3,2046
    1764:	08059663          	bnez	a1,17f0 <__adddf3+0x2fc>
    1768:	00a7e6b3          	or	a3,a5,a0
    176c:	06049263          	bnez	s1,17d0 <__adddf3+0x2dc>
    1770:	44068a63          	beqz	a3,1bc4 <__adddf3+0x6d0>
    1774:	00c766b3          	or	a3,a4,a2
    1778:	02068863          	beqz	a3,17a8 <__adddf3+0x2b4>
    177c:	00c50633          	add	a2,a0,a2
    1780:	00e787b3          	add	a5,a5,a4
    1784:	00a63533          	sltu	a0,a2,a0
    1788:	00a787b3          	add	a5,a5,a0
    178c:	00879713          	slli	a4,a5,0x8
    1790:	00060513          	mv	a0,a2
    1794:	00075a63          	bgez	a4,17a8 <__adddf3+0x2b4>
    1798:	ff800737          	lui	a4,0xff800
    179c:	fff70713          	addi	a4,a4,-1 # ff7fffff <__heap_start+0xff7fafff>
    17a0:	00e7f7b3          	and	a5,a5,a4
    17a4:	00100493          	li	s1,1
    17a8:	00757713          	andi	a4,a0,7
    17ac:	42070863          	beqz	a4,1bdc <__adddf3+0x6e8>
    17b0:	00f57713          	andi	a4,a0,15
    17b4:	00400693          	li	a3,4
    17b8:	42d70263          	beq	a4,a3,1bdc <__adddf3+0x6e8>
    17bc:	00450693          	addi	a3,a0,4
    17c0:	00a6b533          	sltu	a0,a3,a0
    17c4:	00a787b3          	add	a5,a5,a0
    17c8:	00068513          	mv	a0,a3
    17cc:	4100006f          	j	1bdc <__adddf3+0x6e8>
    17d0:	ee0680e3          	beqz	a3,16b0 <__adddf3+0x1bc>
    17d4:	00c76633          	or	a2,a4,a2
    17d8:	dc0600e3          	beqz	a2,1598 <__adddf3+0xa4>
    17dc:	00000913          	li	s2,0
    17e0:	004007b7          	lui	a5,0x400
    17e4:	00000513          	li	a0,0
    17e8:	7ff00493          	li	s1,2047
    17ec:	3f00006f          	j	1bdc <__adddf3+0x6e8>
    17f0:	7ff00593          	li	a1,2047
    17f4:	3cb68e63          	beq	a3,a1,1bd0 <__adddf3+0x6dc>
    17f8:	00c50633          	add	a2,a0,a2
    17fc:	00e78733          	add	a4,a5,a4
    1800:	00a637b3          	sltu	a5,a2,a0
    1804:	00f70733          	add	a4,a4,a5
    1808:	01f71513          	slli	a0,a4,0x1f
    180c:	00165613          	srli	a2,a2,0x1
    1810:	00c56533          	or	a0,a0,a2
    1814:	00175793          	srli	a5,a4,0x1
    1818:	00068493          	mv	s1,a3
    181c:	f8dff06f          	j	17a8 <__adddf3+0x2b4>
    1820:	0f005c63          	blez	a6,1918 <__adddf3+0x424>
    1824:	08089e63          	bnez	a7,18c0 <__adddf3+0x3cc>
    1828:	00c766b3          	or	a3,a4,a2
    182c:	42068e63          	beqz	a3,1c68 <__adddf3+0x774>
    1830:	fff80593          	addi	a1,a6,-1
    1834:	02059063          	bnez	a1,1854 <__adddf3+0x360>
    1838:	40c50633          	sub	a2,a0,a2
    183c:	00c53533          	sltu	a0,a0,a2
    1840:	40e787b3          	sub	a5,a5,a4
    1844:	40a787b3          	sub	a5,a5,a0
    1848:	00060513          	mv	a0,a2
    184c:	00100493          	li	s1,1
    1850:	0540006f          	j	18a4 <__adddf3+0x3b0>
    1854:	7ff00693          	li	a3,2047
    1858:	d4d800e3          	beq	a6,a3,1598 <__adddf3+0xa4>
    185c:	03800693          	li	a3,56
    1860:	0ab6c663          	blt	a3,a1,190c <__adddf3+0x418>
    1864:	01f00693          	li	a3,31
    1868:	06b6c863          	blt	a3,a1,18d8 <__adddf3+0x3e4>
    186c:	02000813          	li	a6,32
    1870:	40b80833          	sub	a6,a6,a1
    1874:	010716b3          	sll	a3,a4,a6
    1878:	00b658b3          	srl	a7,a2,a1
    187c:	01061633          	sll	a2,a2,a6
    1880:	0116e6b3          	or	a3,a3,a7
    1884:	00c03633          	snez	a2,a2
    1888:	00c6e633          	or	a2,a3,a2
    188c:	00b75733          	srl	a4,a4,a1
    1890:	40c50633          	sub	a2,a0,a2
    1894:	40e78733          	sub	a4,a5,a4
    1898:	00c537b3          	sltu	a5,a0,a2
    189c:	40f707b3          	sub	a5,a4,a5
    18a0:	00060513          	mv	a0,a2
    18a4:	00879713          	slli	a4,a5,0x8
    18a8:	f00750e3          	bgez	a4,17a8 <__adddf3+0x2b4>
    18ac:	00800437          	lui	s0,0x800
    18b0:	fff40413          	addi	s0,s0,-1 # 7fffff <__heap_start+0x7fafff>
    18b4:	0087f433          	and	s0,a5,s0
    18b8:	00050993          	mv	s3,a0
    18bc:	20c0006f          	j	1ac8 <__adddf3+0x5d4>
    18c0:	7ff00693          	li	a3,2047
    18c4:	eed482e3          	beq	s1,a3,17a8 <__adddf3+0x2b4>
    18c8:	008006b7          	lui	a3,0x800
    18cc:	00d76733          	or	a4,a4,a3
    18d0:	00080593          	mv	a1,a6
    18d4:	f89ff06f          	j	185c <__adddf3+0x368>
    18d8:	fe058693          	addi	a3,a1,-32
    18dc:	02000893          	li	a7,32
    18e0:	00d756b3          	srl	a3,a4,a3
    18e4:	00000813          	li	a6,0
    18e8:	01158863          	beq	a1,a7,18f8 <__adddf3+0x404>
    18ec:	04000813          	li	a6,64
    18f0:	40b805b3          	sub	a1,a6,a1
    18f4:	00b71833          	sll	a6,a4,a1
    18f8:	00c86633          	or	a2,a6,a2
    18fc:	00c03633          	snez	a2,a2
    1900:	00c6e633          	or	a2,a3,a2
    1904:	00000713          	li	a4,0
    1908:	f89ff06f          	j	1890 <__adddf3+0x39c>
    190c:	00c76633          	or	a2,a4,a2
    1910:	00c03633          	snez	a2,a2
    1914:	ff1ff06f          	j	1904 <__adddf3+0x410>
    1918:	0e080863          	beqz	a6,1a08 <__adddf3+0x514>
    191c:	40988833          	sub	a6,a7,s1
    1920:	04049263          	bnez	s1,1964 <__adddf3+0x470>
    1924:	00a7e5b3          	or	a1,a5,a0
    1928:	34058463          	beqz	a1,1c70 <__adddf3+0x77c>
    192c:	fff80593          	addi	a1,a6,-1
    1930:	00059e63          	bnez	a1,194c <__adddf3+0x458>
    1934:	40a60533          	sub	a0,a2,a0
    1938:	40f707b3          	sub	a5,a4,a5
    193c:	00a63633          	sltu	a2,a2,a0
    1940:	40c787b3          	sub	a5,a5,a2
    1944:	00068913          	mv	s2,a3
    1948:	f05ff06f          	j	184c <__adddf3+0x358>
    194c:	7ff00313          	li	t1,2047
    1950:	02681463          	bne	a6,t1,1978 <__adddf3+0x484>
    1954:	00070793          	mv	a5,a4
    1958:	00060513          	mv	a0,a2
    195c:	7ff00493          	li	s1,2047
    1960:	0d00006f          	j	1a30 <__adddf3+0x53c>
    1964:	7ff00593          	li	a1,2047
    1968:	feb886e3          	beq	a7,a1,1954 <__adddf3+0x460>
    196c:	008005b7          	lui	a1,0x800
    1970:	00b7e7b3          	or	a5,a5,a1
    1974:	00080593          	mv	a1,a6
    1978:	03800813          	li	a6,56
    197c:	08b84063          	blt	a6,a1,19fc <__adddf3+0x508>
    1980:	01f00813          	li	a6,31
    1984:	04b84263          	blt	a6,a1,19c8 <__adddf3+0x4d4>
    1988:	02000313          	li	t1,32
    198c:	40b30333          	sub	t1,t1,a1
    1990:	00b55e33          	srl	t3,a0,a1
    1994:	00679833          	sll	a6,a5,t1
    1998:	00651533          	sll	a0,a0,t1
    199c:	01c86833          	or	a6,a6,t3
    19a0:	00a03533          	snez	a0,a0
    19a4:	00a86533          	or	a0,a6,a0
    19a8:	00b7d5b3          	srl	a1,a5,a1
    19ac:	40a60533          	sub	a0,a2,a0
    19b0:	40b707b3          	sub	a5,a4,a1
    19b4:	00a63633          	sltu	a2,a2,a0
    19b8:	40c787b3          	sub	a5,a5,a2
    19bc:	00088493          	mv	s1,a7
    19c0:	00068913          	mv	s2,a3
    19c4:	ee1ff06f          	j	18a4 <__adddf3+0x3b0>
    19c8:	fe058813          	addi	a6,a1,-32 # 7fffe0 <__heap_start+0x7fafe0>
    19cc:	02000e13          	li	t3,32
    19d0:	0107d833          	srl	a6,a5,a6
    19d4:	00000313          	li	t1,0
    19d8:	01c58863          	beq	a1,t3,19e8 <__adddf3+0x4f4>
    19dc:	04000313          	li	t1,64
    19e0:	40b305b3          	sub	a1,t1,a1
    19e4:	00b79333          	sll	t1,a5,a1
    19e8:	00a36533          	or	a0,t1,a0
    19ec:	00a03533          	snez	a0,a0
    19f0:	00a86533          	or	a0,a6,a0
    19f4:	00000593          	li	a1,0
    19f8:	fb5ff06f          	j	19ac <__adddf3+0x4b8>
    19fc:	00a7e533          	or	a0,a5,a0
    1a00:	00a03533          	snez	a0,a0
    1a04:	ff1ff06f          	j	19f4 <__adddf3+0x500>
    1a08:	00148593          	addi	a1,s1,1
    1a0c:	7fe5f593          	andi	a1,a1,2046
    1a10:	08059663          	bnez	a1,1a9c <__adddf3+0x5a8>
    1a14:	00a7e833          	or	a6,a5,a0
    1a18:	00c765b3          	or	a1,a4,a2
    1a1c:	06049063          	bnez	s1,1a7c <__adddf3+0x588>
    1a20:	00081c63          	bnez	a6,1a38 <__adddf3+0x544>
    1a24:	24058e63          	beqz	a1,1c80 <__adddf3+0x78c>
    1a28:	00070793          	mv	a5,a4
    1a2c:	00060513          	mv	a0,a2
    1a30:	00068913          	mv	s2,a3
    1a34:	d75ff06f          	j	17a8 <__adddf3+0x2b4>
    1a38:	d60588e3          	beqz	a1,17a8 <__adddf3+0x2b4>
    1a3c:	40c50833          	sub	a6,a0,a2
    1a40:	010538b3          	sltu	a7,a0,a6
    1a44:	40e785b3          	sub	a1,a5,a4
    1a48:	411585b3          	sub	a1,a1,a7
    1a4c:	00859893          	slli	a7,a1,0x8
    1a50:	0008dc63          	bgez	a7,1a68 <__adddf3+0x574>
    1a54:	40a60533          	sub	a0,a2,a0
    1a58:	40f707b3          	sub	a5,a4,a5
    1a5c:	00a63633          	sltu	a2,a2,a0
    1a60:	40c787b3          	sub	a5,a5,a2
    1a64:	fcdff06f          	j	1a30 <__adddf3+0x53c>
    1a68:	00b86533          	or	a0,a6,a1
    1a6c:	22050263          	beqz	a0,1c90 <__adddf3+0x79c>
    1a70:	00058793          	mv	a5,a1
    1a74:	00080513          	mv	a0,a6
    1a78:	d31ff06f          	j	17a8 <__adddf3+0x2b4>
    1a7c:	00081c63          	bnez	a6,1a94 <__adddf3+0x5a0>
    1a80:	20058c63          	beqz	a1,1c98 <__adddf3+0x7a4>
    1a84:	00070793          	mv	a5,a4
    1a88:	00060513          	mv	a0,a2
    1a8c:	00068913          	mv	s2,a3
    1a90:	b09ff06f          	j	1598 <__adddf3+0xa4>
    1a94:	b00582e3          	beqz	a1,1598 <__adddf3+0xa4>
    1a98:	d45ff06f          	j	17dc <__adddf3+0x2e8>
    1a9c:	40c509b3          	sub	s3,a0,a2
    1aa0:	013535b3          	sltu	a1,a0,s3
    1aa4:	40e78433          	sub	s0,a5,a4
    1aa8:	40b40433          	sub	s0,s0,a1
    1aac:	00841593          	slli	a1,s0,0x8
    1ab0:	0805d463          	bgez	a1,1b38 <__adddf3+0x644>
    1ab4:	40a609b3          	sub	s3,a2,a0
    1ab8:	40f707b3          	sub	a5,a4,a5
    1abc:	01363633          	sltu	a2,a2,s3
    1ac0:	40c78433          	sub	s0,a5,a2
    1ac4:	00068913          	mv	s2,a3
    1ac8:	08040263          	beqz	s0,1b4c <__adddf3+0x658>
    1acc:	00040513          	mv	a0,s0
    1ad0:	4b0020ef          	jal	ra,3f80 <__clzsi2>
    1ad4:	ff850713          	addi	a4,a0,-8
    1ad8:	01f00793          	li	a5,31
    1adc:	08e7c063          	blt	a5,a4,1b5c <__adddf3+0x668>
    1ae0:	02000793          	li	a5,32
    1ae4:	40e787b3          	sub	a5,a5,a4
    1ae8:	00e41433          	sll	s0,s0,a4
    1aec:	00f9d7b3          	srl	a5,s3,a5
    1af0:	0087e433          	or	s0,a5,s0
    1af4:	00e99533          	sll	a0,s3,a4
    1af8:	0a974463          	blt	a4,s1,1ba0 <__adddf3+0x6ac>
    1afc:	40970733          	sub	a4,a4,s1
    1b00:	00170793          	addi	a5,a4,1
    1b04:	01f00693          	li	a3,31
    1b08:	06f6c263          	blt	a3,a5,1b6c <__adddf3+0x678>
    1b0c:	02000713          	li	a4,32
    1b10:	40f70733          	sub	a4,a4,a5
    1b14:	00f55633          	srl	a2,a0,a5
    1b18:	00e416b3          	sll	a3,s0,a4
    1b1c:	00e51533          	sll	a0,a0,a4
    1b20:	00c6e6b3          	or	a3,a3,a2
    1b24:	00a03533          	snez	a0,a0
    1b28:	00a6e533          	or	a0,a3,a0
    1b2c:	00f457b3          	srl	a5,s0,a5
    1b30:	00000493          	li	s1,0
    1b34:	c75ff06f          	j	17a8 <__adddf3+0x2b4>
    1b38:	0089e533          	or	a0,s3,s0
    1b3c:	f80516e3          	bnez	a0,1ac8 <__adddf3+0x5d4>
    1b40:	00000793          	li	a5,0
    1b44:	00000493          	li	s1,0
    1b48:	1400006f          	j	1c88 <__adddf3+0x794>
    1b4c:	00098513          	mv	a0,s3
    1b50:	430020ef          	jal	ra,3f80 <__clzsi2>
    1b54:	02050513          	addi	a0,a0,32
    1b58:	f7dff06f          	j	1ad4 <__adddf3+0x5e0>
    1b5c:	fd850413          	addi	s0,a0,-40
    1b60:	00899433          	sll	s0,s3,s0
    1b64:	00000513          	li	a0,0
    1b68:	f91ff06f          	j	1af8 <__adddf3+0x604>
    1b6c:	fe170713          	addi	a4,a4,-31
    1b70:	02000613          	li	a2,32
    1b74:	00e45733          	srl	a4,s0,a4
    1b78:	00000693          	li	a3,0
    1b7c:	00c78863          	beq	a5,a2,1b8c <__adddf3+0x698>
    1b80:	04000693          	li	a3,64
    1b84:	40f686b3          	sub	a3,a3,a5
    1b88:	00d416b3          	sll	a3,s0,a3
    1b8c:	00d56533          	or	a0,a0,a3
    1b90:	00a03533          	snez	a0,a0
    1b94:	00a76533          	or	a0,a4,a0
    1b98:	00000793          	li	a5,0
    1b9c:	f95ff06f          	j	1b30 <__adddf3+0x63c>
    1ba0:	ff8007b7          	lui	a5,0xff800
    1ba4:	fff78793          	addi	a5,a5,-1 # ff7fffff <__heap_start+0xff7fafff>
    1ba8:	40e484b3          	sub	s1,s1,a4
    1bac:	00f477b3          	and	a5,s0,a5
    1bb0:	bf9ff06f          	j	17a8 <__adddf3+0x2b4>
    1bb4:	00070793          	mv	a5,a4
    1bb8:	00060513          	mv	a0,a2
    1bbc:	00058493          	mv	s1,a1
    1bc0:	be9ff06f          	j	17a8 <__adddf3+0x2b4>
    1bc4:	00070793          	mv	a5,a4
    1bc8:	00060513          	mv	a0,a2
    1bcc:	bddff06f          	j	17a8 <__adddf3+0x2b4>
    1bd0:	7ff00493          	li	s1,2047
    1bd4:	00000793          	li	a5,0
    1bd8:	00000513          	li	a0,0
    1bdc:	00879713          	slli	a4,a5,0x8
    1be0:	00075e63          	bgez	a4,1bfc <__adddf3+0x708>
    1be4:	00148493          	addi	s1,s1,1
    1be8:	7ff00713          	li	a4,2047
    1bec:	0ae48e63          	beq	s1,a4,1ca8 <__adddf3+0x7b4>
    1bf0:	ff800737          	lui	a4,0xff800
    1bf4:	fff70713          	addi	a4,a4,-1 # ff7fffff <__heap_start+0xff7fafff>
    1bf8:	00e7f7b3          	and	a5,a5,a4
    1bfc:	01d79713          	slli	a4,a5,0x1d
    1c00:	00355513          	srli	a0,a0,0x3
    1c04:	00a76533          	or	a0,a4,a0
    1c08:	7ff00713          	li	a4,2047
    1c0c:	0037d793          	srli	a5,a5,0x3
    1c10:	00e49e63          	bne	s1,a4,1c2c <__adddf3+0x738>
    1c14:	00f56533          	or	a0,a0,a5
    1c18:	00000793          	li	a5,0
    1c1c:	00050863          	beqz	a0,1c2c <__adddf3+0x738>
    1c20:	000807b7          	lui	a5,0x80
    1c24:	00000513          	li	a0,0
    1c28:	00000913          	li	s2,0
    1c2c:	7ff4f713          	andi	a4,s1,2047
    1c30:	00c79793          	slli	a5,a5,0xc
    1c34:	01471713          	slli	a4,a4,0x14
    1c38:	01c12083          	lw	ra,28(sp)
    1c3c:	01812403          	lw	s0,24(sp)
    1c40:	00c7d793          	srli	a5,a5,0xc
    1c44:	01f91593          	slli	a1,s2,0x1f
    1c48:	00e7e7b3          	or	a5,a5,a4
    1c4c:	00b7e733          	or	a4,a5,a1
    1c50:	01412483          	lw	s1,20(sp)
    1c54:	01012903          	lw	s2,16(sp)
    1c58:	00c12983          	lw	s3,12(sp)
    1c5c:	00070593          	mv	a1,a4
    1c60:	02010113          	addi	sp,sp,32
    1c64:	00008067          	ret
    1c68:	00080493          	mv	s1,a6
    1c6c:	b3dff06f          	j	17a8 <__adddf3+0x2b4>
    1c70:	00070793          	mv	a5,a4
    1c74:	00060513          	mv	a0,a2
    1c78:	00080493          	mv	s1,a6
    1c7c:	db5ff06f          	j	1a30 <__adddf3+0x53c>
    1c80:	00000793          	li	a5,0
    1c84:	00000513          	li	a0,0
    1c88:	00000913          	li	s2,0
    1c8c:	f51ff06f          	j	1bdc <__adddf3+0x6e8>
    1c90:	00000793          	li	a5,0
    1c94:	ff5ff06f          	j	1c88 <__adddf3+0x794>
    1c98:	00000513          	li	a0,0
    1c9c:	00000913          	li	s2,0
    1ca0:	004007b7          	lui	a5,0x400
    1ca4:	b45ff06f          	j	17e8 <__adddf3+0x2f4>
    1ca8:	00000793          	li	a5,0
    1cac:	00000513          	li	a0,0
    1cb0:	f4dff06f          	j	1bfc <__adddf3+0x708>

00001cb4 <__divdf3>:
    1cb4:	fb010113          	addi	sp,sp,-80
    1cb8:	03312e23          	sw	s3,60(sp)
    1cbc:	0145d993          	srli	s3,a1,0x14
    1cc0:	04912223          	sw	s1,68(sp)
    1cc4:	05212023          	sw	s2,64(sp)
    1cc8:	03512a23          	sw	s5,52(sp)
    1ccc:	03612823          	sw	s6,48(sp)
    1cd0:	03712623          	sw	s7,44(sp)
    1cd4:	00c59493          	slli	s1,a1,0xc
    1cd8:	04112623          	sw	ra,76(sp)
    1cdc:	04812423          	sw	s0,72(sp)
    1ce0:	03412c23          	sw	s4,56(sp)
    1ce4:	03812423          	sw	s8,40(sp)
    1ce8:	03912223          	sw	s9,36(sp)
    1cec:	03a12023          	sw	s10,32(sp)
    1cf0:	01b12e23          	sw	s11,28(sp)
    1cf4:	7ff9f993          	andi	s3,s3,2047
    1cf8:	00050913          	mv	s2,a0
    1cfc:	00060b93          	mv	s7,a2
    1d00:	00068b13          	mv	s6,a3
    1d04:	00c4d493          	srli	s1,s1,0xc
    1d08:	01f5da93          	srli	s5,a1,0x1f
    1d0c:	0a098063          	beqz	s3,1dac <__divdf3+0xf8>
    1d10:	7ff00793          	li	a5,2047
    1d14:	0ef98e63          	beq	s3,a5,1e10 <__divdf3+0x15c>
    1d18:	01d55c93          	srli	s9,a0,0x1d
    1d1c:	00349493          	slli	s1,s1,0x3
    1d20:	009ce4b3          	or	s1,s9,s1
    1d24:	00800cb7          	lui	s9,0x800
    1d28:	0194ecb3          	or	s9,s1,s9
    1d2c:	00351413          	slli	s0,a0,0x3
    1d30:	c0198a13          	addi	s4,s3,-1023
    1d34:	00000c13          	li	s8,0
    1d38:	014b5513          	srli	a0,s6,0x14
    1d3c:	00cb1913          	slli	s2,s6,0xc
    1d40:	7ff57993          	andi	s3,a0,2047
    1d44:	00c95913          	srli	s2,s2,0xc
    1d48:	01fb5b13          	srli	s6,s6,0x1f
    1d4c:	10098063          	beqz	s3,1e4c <__divdf3+0x198>
    1d50:	7ff00793          	li	a5,2047
    1d54:	16f98063          	beq	s3,a5,1eb4 <__divdf3+0x200>
    1d58:	00391513          	slli	a0,s2,0x3
    1d5c:	01dbd793          	srli	a5,s7,0x1d
    1d60:	00a7e533          	or	a0,a5,a0
    1d64:	00800937          	lui	s2,0x800
    1d68:	01256933          	or	s2,a0,s2
    1d6c:	003b9813          	slli	a6,s7,0x3
    1d70:	c0198513          	addi	a0,s3,-1023
    1d74:	00000793          	li	a5,0
    1d78:	002c1713          	slli	a4,s8,0x2
    1d7c:	00f76733          	or	a4,a4,a5
    1d80:	fff70713          	addi	a4,a4,-1
    1d84:	00e00693          	li	a3,14
    1d88:	016ac4b3          	xor	s1,s5,s6
    1d8c:	40aa09b3          	sub	s3,s4,a0
    1d90:	14e6ee63          	bltu	a3,a4,1eec <__divdf3+0x238>
    1d94:	000046b7          	lui	a3,0x4
    1d98:	00271713          	slli	a4,a4,0x2
    1d9c:	fcc68693          	addi	a3,a3,-52 # 3fcc <__clzsi2+0x4c>
    1da0:	00d70733          	add	a4,a4,a3
    1da4:	00072703          	lw	a4,0(a4)
    1da8:	00070067          	jr	a4
    1dac:	00a4ecb3          	or	s9,s1,a0
    1db0:	060c8e63          	beqz	s9,1e2c <__divdf3+0x178>
    1db4:	04048063          	beqz	s1,1df4 <__divdf3+0x140>
    1db8:	00048513          	mv	a0,s1
    1dbc:	1c4020ef          	jal	ra,3f80 <__clzsi2>
    1dc0:	ff550793          	addi	a5,a0,-11
    1dc4:	01c00713          	li	a4,28
    1dc8:	02f74c63          	blt	a4,a5,1e00 <__divdf3+0x14c>
    1dcc:	01d00c93          	li	s9,29
    1dd0:	ff850413          	addi	s0,a0,-8
    1dd4:	40fc8cb3          	sub	s9,s9,a5
    1dd8:	008494b3          	sll	s1,s1,s0
    1ddc:	01995cb3          	srl	s9,s2,s9
    1de0:	009cecb3          	or	s9,s9,s1
    1de4:	00891433          	sll	s0,s2,s0
    1de8:	c0d00993          	li	s3,-1011
    1dec:	40a98a33          	sub	s4,s3,a0
    1df0:	f45ff06f          	j	1d34 <__divdf3+0x80>
    1df4:	18c020ef          	jal	ra,3f80 <__clzsi2>
    1df8:	02050513          	addi	a0,a0,32
    1dfc:	fc5ff06f          	j	1dc0 <__divdf3+0x10c>
    1e00:	fd850493          	addi	s1,a0,-40
    1e04:	00991cb3          	sll	s9,s2,s1
    1e08:	00000413          	li	s0,0
    1e0c:	fddff06f          	j	1de8 <__divdf3+0x134>
    1e10:	00a4ecb3          	or	s9,s1,a0
    1e14:	020c8463          	beqz	s9,1e3c <__divdf3+0x188>
    1e18:	00050413          	mv	s0,a0
    1e1c:	00048c93          	mv	s9,s1
    1e20:	7ff00a13          	li	s4,2047
    1e24:	00300c13          	li	s8,3
    1e28:	f11ff06f          	j	1d38 <__divdf3+0x84>
    1e2c:	00000413          	li	s0,0
    1e30:	00000a13          	li	s4,0
    1e34:	00100c13          	li	s8,1
    1e38:	f01ff06f          	j	1d38 <__divdf3+0x84>
    1e3c:	00000413          	li	s0,0
    1e40:	7ff00a13          	li	s4,2047
    1e44:	00200c13          	li	s8,2
    1e48:	ef1ff06f          	j	1d38 <__divdf3+0x84>
    1e4c:	01796833          	or	a6,s2,s7
    1e50:	06080e63          	beqz	a6,1ecc <__divdf3+0x218>
    1e54:	04090063          	beqz	s2,1e94 <__divdf3+0x1e0>
    1e58:	00090513          	mv	a0,s2
    1e5c:	124020ef          	jal	ra,3f80 <__clzsi2>
    1e60:	ff550793          	addi	a5,a0,-11
    1e64:	01c00713          	li	a4,28
    1e68:	02f74e63          	blt	a4,a5,1ea4 <__divdf3+0x1f0>
    1e6c:	01d00713          	li	a4,29
    1e70:	ff850813          	addi	a6,a0,-8
    1e74:	40f70733          	sub	a4,a4,a5
    1e78:	01091933          	sll	s2,s2,a6
    1e7c:	00ebd733          	srl	a4,s7,a4
    1e80:	01276933          	or	s2,a4,s2
    1e84:	010b9833          	sll	a6,s7,a6
    1e88:	c0d00713          	li	a4,-1011
    1e8c:	40a70533          	sub	a0,a4,a0
    1e90:	ee5ff06f          	j	1d74 <__divdf3+0xc0>
    1e94:	000b8513          	mv	a0,s7
    1e98:	0e8020ef          	jal	ra,3f80 <__clzsi2>
    1e9c:	02050513          	addi	a0,a0,32
    1ea0:	fc1ff06f          	j	1e60 <__divdf3+0x1ac>
    1ea4:	fd850913          	addi	s2,a0,-40
    1ea8:	012b9933          	sll	s2,s7,s2
    1eac:	00000813          	li	a6,0
    1eb0:	fd9ff06f          	j	1e88 <__divdf3+0x1d4>
    1eb4:	01796833          	or	a6,s2,s7
    1eb8:	02080263          	beqz	a6,1edc <__divdf3+0x228>
    1ebc:	000b8813          	mv	a6,s7
    1ec0:	7ff00513          	li	a0,2047
    1ec4:	00300793          	li	a5,3
    1ec8:	eb1ff06f          	j	1d78 <__divdf3+0xc4>
    1ecc:	00000913          	li	s2,0
    1ed0:	00000513          	li	a0,0
    1ed4:	00100793          	li	a5,1
    1ed8:	ea1ff06f          	j	1d78 <__divdf3+0xc4>
    1edc:	00000913          	li	s2,0
    1ee0:	7ff00513          	li	a0,2047
    1ee4:	00200793          	li	a5,2
    1ee8:	e91ff06f          	j	1d78 <__divdf3+0xc4>
    1eec:	01996663          	bltu	s2,s9,1ef8 <__divdf3+0x244>
    1ef0:	452c9263          	bne	s9,s2,2334 <__divdf3+0x680>
    1ef4:	45046063          	bltu	s0,a6,2334 <__divdf3+0x680>
    1ef8:	01fc9713          	slli	a4,s9,0x1f
    1efc:	00145793          	srli	a5,s0,0x1
    1f00:	01f41d93          	slli	s11,s0,0x1f
    1f04:	001cdc93          	srli	s9,s9,0x1
    1f08:	00f76433          	or	s0,a4,a5
    1f0c:	01885b93          	srli	s7,a6,0x18
    1f10:	00891513          	slli	a0,s2,0x8
    1f14:	00abebb3          	or	s7,s7,a0
    1f18:	010bda93          	srli	s5,s7,0x10
    1f1c:	000a8593          	mv	a1,s5
    1f20:	010b9b13          	slli	s6,s7,0x10
    1f24:	000c8513          	mv	a0,s9
    1f28:	00881c13          	slli	s8,a6,0x8
    1f2c:	010b5b13          	srli	s6,s6,0x10
    1f30:	7a5010ef          	jal	ra,3ed4 <__udivsi3>
    1f34:	00050593          	mv	a1,a0
    1f38:	00050d13          	mv	s10,a0
    1f3c:	000b0513          	mv	a0,s6
    1f40:	769010ef          	jal	ra,3ea8 <__mulsi3>
    1f44:	00050913          	mv	s2,a0
    1f48:	000a8593          	mv	a1,s5
    1f4c:	000c8513          	mv	a0,s9
    1f50:	7cd010ef          	jal	ra,3f1c <__umodsi3>
    1f54:	01051513          	slli	a0,a0,0x10
    1f58:	01045793          	srli	a5,s0,0x10
    1f5c:	00a7e533          	or	a0,a5,a0
    1f60:	000d0a13          	mv	s4,s10
    1f64:	01257e63          	bgeu	a0,s2,1f80 <__divdf3+0x2cc>
    1f68:	01750533          	add	a0,a0,s7
    1f6c:	fffd0a13          	addi	s4,s10,-1
    1f70:	01756863          	bltu	a0,s7,1f80 <__divdf3+0x2cc>
    1f74:	01257663          	bgeu	a0,s2,1f80 <__divdf3+0x2cc>
    1f78:	ffed0a13          	addi	s4,s10,-2
    1f7c:	01750533          	add	a0,a0,s7
    1f80:	41250933          	sub	s2,a0,s2
    1f84:	000a8593          	mv	a1,s5
    1f88:	00090513          	mv	a0,s2
    1f8c:	749010ef          	jal	ra,3ed4 <__udivsi3>
    1f90:	00050593          	mv	a1,a0
    1f94:	00050d13          	mv	s10,a0
    1f98:	000b0513          	mv	a0,s6
    1f9c:	70d010ef          	jal	ra,3ea8 <__mulsi3>
    1fa0:	00050c93          	mv	s9,a0
    1fa4:	000a8593          	mv	a1,s5
    1fa8:	00090513          	mv	a0,s2
    1fac:	771010ef          	jal	ra,3f1c <__umodsi3>
    1fb0:	01041413          	slli	s0,s0,0x10
    1fb4:	01051513          	slli	a0,a0,0x10
    1fb8:	01045413          	srli	s0,s0,0x10
    1fbc:	00a46433          	or	s0,s0,a0
    1fc0:	000d0713          	mv	a4,s10
    1fc4:	01947e63          	bgeu	s0,s9,1fe0 <__divdf3+0x32c>
    1fc8:	01740433          	add	s0,s0,s7
    1fcc:	fffd0713          	addi	a4,s10,-1
    1fd0:	01746863          	bltu	s0,s7,1fe0 <__divdf3+0x32c>
    1fd4:	01947663          	bgeu	s0,s9,1fe0 <__divdf3+0x32c>
    1fd8:	ffed0713          	addi	a4,s10,-2
    1fdc:	01740433          	add	s0,s0,s7
    1fe0:	010a1793          	slli	a5,s4,0x10
    1fe4:	00010e37          	lui	t3,0x10
    1fe8:	00e7e7b3          	or	a5,a5,a4
    1fec:	41940833          	sub	a6,s0,s9
    1ff0:	fffe0c93          	addi	s9,t3,-1 # ffff <__heap_start+0xafff>
    1ff4:	0197f333          	and	t1,a5,s9
    1ff8:	019c7cb3          	and	s9,s8,s9
    1ffc:	0107d713          	srli	a4,a5,0x10
    2000:	010c5d13          	srli	s10,s8,0x10
    2004:	00030513          	mv	a0,t1
    2008:	000c8593          	mv	a1,s9
    200c:	69d010ef          	jal	ra,3ea8 <__mulsi3>
    2010:	00050893          	mv	a7,a0
    2014:	000d0593          	mv	a1,s10
    2018:	00030513          	mv	a0,t1
    201c:	68d010ef          	jal	ra,3ea8 <__mulsi3>
    2020:	00050313          	mv	t1,a0
    2024:	000c8593          	mv	a1,s9
    2028:	00070513          	mv	a0,a4
    202c:	67d010ef          	jal	ra,3ea8 <__mulsi3>
    2030:	00050e93          	mv	t4,a0
    2034:	000d0593          	mv	a1,s10
    2038:	00070513          	mv	a0,a4
    203c:	66d010ef          	jal	ra,3ea8 <__mulsi3>
    2040:	0108d713          	srli	a4,a7,0x10
    2044:	01d30333          	add	t1,t1,t4
    2048:	00670733          	add	a4,a4,t1
    204c:	01d77463          	bgeu	a4,t4,2054 <__divdf3+0x3a0>
    2050:	01c50533          	add	a0,a0,t3
    2054:	01075413          	srli	s0,a4,0x10
    2058:	00a40433          	add	s0,s0,a0
    205c:	00010537          	lui	a0,0x10
    2060:	fff50513          	addi	a0,a0,-1 # ffff <__heap_start+0xafff>
    2064:	00a77a33          	and	s4,a4,a0
    2068:	010a1a13          	slli	s4,s4,0x10
    206c:	00a8f8b3          	and	a7,a7,a0
    2070:	011a0a33          	add	s4,s4,a7
    2074:	00886863          	bltu	a6,s0,2084 <__divdf3+0x3d0>
    2078:	00078913          	mv	s2,a5
    207c:	04881463          	bne	a6,s0,20c4 <__divdf3+0x410>
    2080:	054df263          	bgeu	s11,s4,20c4 <__divdf3+0x410>
    2084:	018d8db3          	add	s11,s11,s8
    2088:	018db733          	sltu	a4,s11,s8
    208c:	01770733          	add	a4,a4,s7
    2090:	00e80833          	add	a6,a6,a4
    2094:	fff78913          	addi	s2,a5,-1 # 3fffff <__heap_start+0x3fafff>
    2098:	010be663          	bltu	s7,a6,20a4 <__divdf3+0x3f0>
    209c:	030b9463          	bne	s7,a6,20c4 <__divdf3+0x410>
    20a0:	038de263          	bltu	s11,s8,20c4 <__divdf3+0x410>
    20a4:	00886663          	bltu	a6,s0,20b0 <__divdf3+0x3fc>
    20a8:	01041e63          	bne	s0,a6,20c4 <__divdf3+0x410>
    20ac:	014dfc63          	bgeu	s11,s4,20c4 <__divdf3+0x410>
    20b0:	018d8db3          	add	s11,s11,s8
    20b4:	ffe78913          	addi	s2,a5,-2
    20b8:	018db7b3          	sltu	a5,s11,s8
    20bc:	017787b3          	add	a5,a5,s7
    20c0:	00f80833          	add	a6,a6,a5
    20c4:	414d8a33          	sub	s4,s11,s4
    20c8:	40880433          	sub	s0,a6,s0
    20cc:	014db7b3          	sltu	a5,s11,s4
    20d0:	40f40433          	sub	s0,s0,a5
    20d4:	fff00813          	li	a6,-1
    20d8:	1a8b8063          	beq	s7,s0,2278 <__divdf3+0x5c4>
    20dc:	000a8593          	mv	a1,s5
    20e0:	00040513          	mv	a0,s0
    20e4:	5f1010ef          	jal	ra,3ed4 <__udivsi3>
    20e8:	00050593          	mv	a1,a0
    20ec:	00a12623          	sw	a0,12(sp)
    20f0:	000b0513          	mv	a0,s6
    20f4:	5b5010ef          	jal	ra,3ea8 <__mulsi3>
    20f8:	00a12423          	sw	a0,8(sp)
    20fc:	000a8593          	mv	a1,s5
    2100:	00040513          	mv	a0,s0
    2104:	619010ef          	jal	ra,3f1c <__umodsi3>
    2108:	00c12683          	lw	a3,12(sp)
    210c:	00812703          	lw	a4,8(sp)
    2110:	01051513          	slli	a0,a0,0x10
    2114:	010a5793          	srli	a5,s4,0x10
    2118:	00a7e533          	or	a0,a5,a0
    211c:	00068d93          	mv	s11,a3
    2120:	00e57e63          	bgeu	a0,a4,213c <__divdf3+0x488>
    2124:	01750533          	add	a0,a0,s7
    2128:	fff68d93          	addi	s11,a3,-1
    212c:	01756863          	bltu	a0,s7,213c <__divdf3+0x488>
    2130:	00e57663          	bgeu	a0,a4,213c <__divdf3+0x488>
    2134:	ffe68d93          	addi	s11,a3,-2
    2138:	01750533          	add	a0,a0,s7
    213c:	40e50433          	sub	s0,a0,a4
    2140:	000a8593          	mv	a1,s5
    2144:	00040513          	mv	a0,s0
    2148:	58d010ef          	jal	ra,3ed4 <__udivsi3>
    214c:	00050593          	mv	a1,a0
    2150:	00a12423          	sw	a0,8(sp)
    2154:	000b0513          	mv	a0,s6
    2158:	551010ef          	jal	ra,3ea8 <__mulsi3>
    215c:	00050b13          	mv	s6,a0
    2160:	000a8593          	mv	a1,s5
    2164:	00040513          	mv	a0,s0
    2168:	5b5010ef          	jal	ra,3f1c <__umodsi3>
    216c:	010a1a13          	slli	s4,s4,0x10
    2170:	00812703          	lw	a4,8(sp)
    2174:	01051513          	slli	a0,a0,0x10
    2178:	010a5a13          	srli	s4,s4,0x10
    217c:	00aa6533          	or	a0,s4,a0
    2180:	00070793          	mv	a5,a4
    2184:	01657e63          	bgeu	a0,s6,21a0 <__divdf3+0x4ec>
    2188:	01750533          	add	a0,a0,s7
    218c:	fff70793          	addi	a5,a4,-1
    2190:	01756863          	bltu	a0,s7,21a0 <__divdf3+0x4ec>
    2194:	01657663          	bgeu	a0,s6,21a0 <__divdf3+0x4ec>
    2198:	ffe70793          	addi	a5,a4,-2
    219c:	01750533          	add	a0,a0,s7
    21a0:	010d9893          	slli	a7,s11,0x10
    21a4:	00f8e8b3          	or	a7,a7,a5
    21a8:	01089713          	slli	a4,a7,0x10
    21ac:	01075713          	srli	a4,a4,0x10
    21b0:	41650333          	sub	t1,a0,s6
    21b4:	0108d793          	srli	a5,a7,0x10
    21b8:	00070513          	mv	a0,a4
    21bc:	000c8593          	mv	a1,s9
    21c0:	4e9010ef          	jal	ra,3ea8 <__mulsi3>
    21c4:	00050813          	mv	a6,a0
    21c8:	000d0593          	mv	a1,s10
    21cc:	00070513          	mv	a0,a4
    21d0:	4d9010ef          	jal	ra,3ea8 <__mulsi3>
    21d4:	00050713          	mv	a4,a0
    21d8:	000c8593          	mv	a1,s9
    21dc:	00078513          	mv	a0,a5
    21e0:	4c9010ef          	jal	ra,3ea8 <__mulsi3>
    21e4:	00050e13          	mv	t3,a0
    21e8:	000d0593          	mv	a1,s10
    21ec:	00078513          	mv	a0,a5
    21f0:	4b9010ef          	jal	ra,3ea8 <__mulsi3>
    21f4:	01085793          	srli	a5,a6,0x10
    21f8:	01c70733          	add	a4,a4,t3
    21fc:	00e787b3          	add	a5,a5,a4
    2200:	01c7f663          	bgeu	a5,t3,220c <__divdf3+0x558>
    2204:	00010737          	lui	a4,0x10
    2208:	00e50533          	add	a0,a0,a4
    220c:	00010637          	lui	a2,0x10
    2210:	fff60613          	addi	a2,a2,-1 # ffff <__heap_start+0xafff>
    2214:	0107d693          	srli	a3,a5,0x10
    2218:	00c7f733          	and	a4,a5,a2
    221c:	01071713          	slli	a4,a4,0x10
    2220:	00c87833          	and	a6,a6,a2
    2224:	00a686b3          	add	a3,a3,a0
    2228:	01070733          	add	a4,a4,a6
    222c:	00d36863          	bltu	t1,a3,223c <__divdf3+0x588>
    2230:	24d31463          	bne	t1,a3,2478 <__divdf3+0x7c4>
    2234:	00088813          	mv	a6,a7
    2238:	04070063          	beqz	a4,2278 <__divdf3+0x5c4>
    223c:	006b8533          	add	a0,s7,t1
    2240:	fff88813          	addi	a6,a7,-1
    2244:	03756463          	bltu	a0,s7,226c <__divdf3+0x5b8>
    2248:	00d56663          	bltu	a0,a3,2254 <__divdf3+0x5a0>
    224c:	22d51463          	bne	a0,a3,2474 <__divdf3+0x7c0>
    2250:	02ec7063          	bgeu	s8,a4,2270 <__divdf3+0x5bc>
    2254:	001c1793          	slli	a5,s8,0x1
    2258:	0187bc33          	sltu	s8,a5,s8
    225c:	017c0bb3          	add	s7,s8,s7
    2260:	ffe88813          	addi	a6,a7,-2
    2264:	01750533          	add	a0,a0,s7
    2268:	00078c13          	mv	s8,a5
    226c:	00d51463          	bne	a0,a3,2274 <__divdf3+0x5c0>
    2270:	00ec0463          	beq	s8,a4,2278 <__divdf3+0x5c4>
    2274:	00186813          	ori	a6,a6,1
    2278:	3ff98713          	addi	a4,s3,1023
    227c:	10e05a63          	blez	a4,2390 <__divdf3+0x6dc>
    2280:	00787793          	andi	a5,a6,7
    2284:	02078063          	beqz	a5,22a4 <__divdf3+0x5f0>
    2288:	00f87793          	andi	a5,a6,15
    228c:	00400693          	li	a3,4
    2290:	00d78a63          	beq	a5,a3,22a4 <__divdf3+0x5f0>
    2294:	00480693          	addi	a3,a6,4
    2298:	0106b833          	sltu	a6,a3,a6
    229c:	01090933          	add	s2,s2,a6
    22a0:	00068813          	mv	a6,a3
    22a4:	00791793          	slli	a5,s2,0x7
    22a8:	0007da63          	bgez	a5,22bc <__divdf3+0x608>
    22ac:	ff0007b7          	lui	a5,0xff000
    22b0:	fff78793          	addi	a5,a5,-1 # feffffff <__heap_start+0xfeffafff>
    22b4:	00f97933          	and	s2,s2,a5
    22b8:	40098713          	addi	a4,s3,1024
    22bc:	7fe00793          	li	a5,2046
    22c0:	18e7ca63          	blt	a5,a4,2454 <__divdf3+0x7a0>
    22c4:	00385813          	srli	a6,a6,0x3
    22c8:	01d91793          	slli	a5,s2,0x1d
    22cc:	0107e7b3          	or	a5,a5,a6
    22d0:	00395513          	srli	a0,s2,0x3
    22d4:	00c51513          	slli	a0,a0,0xc
    22d8:	7ff77713          	andi	a4,a4,2047
    22dc:	01471713          	slli	a4,a4,0x14
    22e0:	04c12083          	lw	ra,76(sp)
    22e4:	04812403          	lw	s0,72(sp)
    22e8:	00c55513          	srli	a0,a0,0xc
    22ec:	01f49493          	slli	s1,s1,0x1f
    22f0:	00e56533          	or	a0,a0,a4
    22f4:	00956733          	or	a4,a0,s1
    22f8:	04012903          	lw	s2,64(sp)
    22fc:	04412483          	lw	s1,68(sp)
    2300:	03c12983          	lw	s3,60(sp)
    2304:	03812a03          	lw	s4,56(sp)
    2308:	03412a83          	lw	s5,52(sp)
    230c:	03012b03          	lw	s6,48(sp)
    2310:	02c12b83          	lw	s7,44(sp)
    2314:	02812c03          	lw	s8,40(sp)
    2318:	02412c83          	lw	s9,36(sp)
    231c:	02012d03          	lw	s10,32(sp)
    2320:	01c12d83          	lw	s11,28(sp)
    2324:	00078513          	mv	a0,a5
    2328:	00070593          	mv	a1,a4
    232c:	05010113          	addi	sp,sp,80
    2330:	00008067          	ret
    2334:	fff98993          	addi	s3,s3,-1
    2338:	00000d93          	li	s11,0
    233c:	bd1ff06f          	j	1f0c <__divdf3+0x258>
    2340:	000a8493          	mv	s1,s5
    2344:	000c8913          	mv	s2,s9
    2348:	00040813          	mv	a6,s0
    234c:	000c0793          	mv	a5,s8
    2350:	00200713          	li	a4,2
    2354:	10e78063          	beq	a5,a4,2454 <__divdf3+0x7a0>
    2358:	00300713          	li	a4,3
    235c:	0ee78263          	beq	a5,a4,2440 <__divdf3+0x78c>
    2360:	00100713          	li	a4,1
    2364:	f0e79ae3          	bne	a5,a4,2278 <__divdf3+0x5c4>
    2368:	00000513          	li	a0,0
    236c:	00000793          	li	a5,0
    2370:	0940006f          	j	2404 <__divdf3+0x750>
    2374:	000b0493          	mv	s1,s6
    2378:	fd9ff06f          	j	2350 <__divdf3+0x69c>
    237c:	00080937          	lui	s2,0x80
    2380:	00000813          	li	a6,0
    2384:	00000493          	li	s1,0
    2388:	00300793          	li	a5,3
    238c:	fc5ff06f          	j	2350 <__divdf3+0x69c>
    2390:	00100513          	li	a0,1
    2394:	40e50533          	sub	a0,a0,a4
    2398:	03800793          	li	a5,56
    239c:	fca7c6e3          	blt	a5,a0,2368 <__divdf3+0x6b4>
    23a0:	01f00793          	li	a5,31
    23a4:	06a7c463          	blt	a5,a0,240c <__divdf3+0x758>
    23a8:	41e98993          	addi	s3,s3,1054
    23ac:	013917b3          	sll	a5,s2,s3
    23b0:	00a85733          	srl	a4,a6,a0
    23b4:	013819b3          	sll	s3,a6,s3
    23b8:	00e7e7b3          	or	a5,a5,a4
    23bc:	013039b3          	snez	s3,s3
    23c0:	0137e7b3          	or	a5,a5,s3
    23c4:	00a95533          	srl	a0,s2,a0
    23c8:	0077f713          	andi	a4,a5,7
    23cc:	02070063          	beqz	a4,23ec <__divdf3+0x738>
    23d0:	00f7f713          	andi	a4,a5,15
    23d4:	00400693          	li	a3,4
    23d8:	00d70a63          	beq	a4,a3,23ec <__divdf3+0x738>
    23dc:	00478713          	addi	a4,a5,4
    23e0:	00f737b3          	sltu	a5,a4,a5
    23e4:	00f50533          	add	a0,a0,a5
    23e8:	00070793          	mv	a5,a4
    23ec:	00851713          	slli	a4,a0,0x8
    23f0:	06074a63          	bltz	a4,2464 <__divdf3+0x7b0>
    23f4:	01d51713          	slli	a4,a0,0x1d
    23f8:	0037d793          	srli	a5,a5,0x3
    23fc:	00f767b3          	or	a5,a4,a5
    2400:	00355513          	srli	a0,a0,0x3
    2404:	00000713          	li	a4,0
    2408:	ecdff06f          	j	22d4 <__divdf3+0x620>
    240c:	fe100793          	li	a5,-31
    2410:	40e787b3          	sub	a5,a5,a4
    2414:	02000693          	li	a3,32
    2418:	00f957b3          	srl	a5,s2,a5
    241c:	00000713          	li	a4,0
    2420:	00d50663          	beq	a0,a3,242c <__divdf3+0x778>
    2424:	43e98993          	addi	s3,s3,1086
    2428:	01391733          	sll	a4,s2,s3
    242c:	01076833          	or	a6,a4,a6
    2430:	01003833          	snez	a6,a6
    2434:	0107e7b3          	or	a5,a5,a6
    2438:	00000513          	li	a0,0
    243c:	f8dff06f          	j	23c8 <__divdf3+0x714>
    2440:	00080537          	lui	a0,0x80
    2444:	00000793          	li	a5,0
    2448:	7ff00713          	li	a4,2047
    244c:	00000493          	li	s1,0
    2450:	e85ff06f          	j	22d4 <__divdf3+0x620>
    2454:	00000513          	li	a0,0
    2458:	00000793          	li	a5,0
    245c:	7ff00713          	li	a4,2047
    2460:	e75ff06f          	j	22d4 <__divdf3+0x620>
    2464:	00000513          	li	a0,0
    2468:	00000793          	li	a5,0
    246c:	00100713          	li	a4,1
    2470:	e65ff06f          	j	22d4 <__divdf3+0x620>
    2474:	00080893          	mv	a7,a6
    2478:	00088813          	mv	a6,a7
    247c:	df9ff06f          	j	2274 <__divdf3+0x5c0>

00002480 <__muldf3>:
    2480:	fd010113          	addi	sp,sp,-48
    2484:	01312e23          	sw	s3,28(sp)
    2488:	0145d993          	srli	s3,a1,0x14
    248c:	02812423          	sw	s0,40(sp)
    2490:	02912223          	sw	s1,36(sp)
    2494:	01412c23          	sw	s4,24(sp)
    2498:	01512a23          	sw	s5,20(sp)
    249c:	01612823          	sw	s6,16(sp)
    24a0:	00c59493          	slli	s1,a1,0xc
    24a4:	02112623          	sw	ra,44(sp)
    24a8:	03212023          	sw	s2,32(sp)
    24ac:	01712623          	sw	s7,12(sp)
    24b0:	7ff9f993          	andi	s3,s3,2047
    24b4:	00050413          	mv	s0,a0
    24b8:	00060b13          	mv	s6,a2
    24bc:	00068a93          	mv	s5,a3
    24c0:	00c4d493          	srli	s1,s1,0xc
    24c4:	01f5da13          	srli	s4,a1,0x1f
    24c8:	0a098263          	beqz	s3,256c <__muldf3+0xec>
    24cc:	7ff00793          	li	a5,2047
    24d0:	10f98063          	beq	s3,a5,25d0 <__muldf3+0x150>
    24d4:	01d55793          	srli	a5,a0,0x1d
    24d8:	00349493          	slli	s1,s1,0x3
    24dc:	0097e4b3          	or	s1,a5,s1
    24e0:	008007b7          	lui	a5,0x800
    24e4:	00f4e4b3          	or	s1,s1,a5
    24e8:	00351913          	slli	s2,a0,0x3
    24ec:	c0198993          	addi	s3,s3,-1023
    24f0:	00000b93          	li	s7,0
    24f4:	014ad513          	srli	a0,s5,0x14
    24f8:	00ca9413          	slli	s0,s5,0xc
    24fc:	7ff57513          	andi	a0,a0,2047
    2500:	00c45413          	srli	s0,s0,0xc
    2504:	01fada93          	srli	s5,s5,0x1f
    2508:	10050063          	beqz	a0,2608 <__muldf3+0x188>
    250c:	7ff00793          	li	a5,2047
    2510:	16f50063          	beq	a0,a5,2670 <__muldf3+0x1f0>
    2514:	01db5793          	srli	a5,s6,0x1d
    2518:	00341413          	slli	s0,s0,0x3
    251c:	0087e433          	or	s0,a5,s0
    2520:	008007b7          	lui	a5,0x800
    2524:	00f46433          	or	s0,s0,a5
    2528:	c0150513          	addi	a0,a0,-1023 # 7fc01 <__heap_start+0x7ac01>
    252c:	003b1793          	slli	a5,s6,0x3
    2530:	00000713          	li	a4,0
    2534:	002b9693          	slli	a3,s7,0x2
    2538:	00e6e6b3          	or	a3,a3,a4
    253c:	00a989b3          	add	s3,s3,a0
    2540:	fff68693          	addi	a3,a3,-1
    2544:	00e00613          	li	a2,14
    2548:	015a4833          	xor	a6,s4,s5
    254c:	00198893          	addi	a7,s3,1
    2550:	14d66c63          	bltu	a2,a3,26a8 <__muldf3+0x228>
    2554:	00004637          	lui	a2,0x4
    2558:	00269693          	slli	a3,a3,0x2
    255c:	00860613          	addi	a2,a2,8 # 4008 <__clzsi2+0x88>
    2560:	00c686b3          	add	a3,a3,a2
    2564:	0006a683          	lw	a3,0(a3)
    2568:	00068067          	jr	a3
    256c:	00a4e933          	or	s2,s1,a0
    2570:	06090c63          	beqz	s2,25e8 <__muldf3+0x168>
    2574:	04048063          	beqz	s1,25b4 <__muldf3+0x134>
    2578:	00048513          	mv	a0,s1
    257c:	205010ef          	jal	ra,3f80 <__clzsi2>
    2580:	ff550713          	addi	a4,a0,-11
    2584:	01c00793          	li	a5,28
    2588:	02e7cc63          	blt	a5,a4,25c0 <__muldf3+0x140>
    258c:	01d00793          	li	a5,29
    2590:	ff850913          	addi	s2,a0,-8
    2594:	40e787b3          	sub	a5,a5,a4
    2598:	012494b3          	sll	s1,s1,s2
    259c:	00f457b3          	srl	a5,s0,a5
    25a0:	0097e4b3          	or	s1,a5,s1
    25a4:	01241933          	sll	s2,s0,s2
    25a8:	c0d00993          	li	s3,-1011
    25ac:	40a989b3          	sub	s3,s3,a0
    25b0:	f41ff06f          	j	24f0 <__muldf3+0x70>
    25b4:	1cd010ef          	jal	ra,3f80 <__clzsi2>
    25b8:	02050513          	addi	a0,a0,32
    25bc:	fc5ff06f          	j	2580 <__muldf3+0x100>
    25c0:	fd850493          	addi	s1,a0,-40
    25c4:	009414b3          	sll	s1,s0,s1
    25c8:	00000913          	li	s2,0
    25cc:	fddff06f          	j	25a8 <__muldf3+0x128>
    25d0:	00a4e933          	or	s2,s1,a0
    25d4:	02090263          	beqz	s2,25f8 <__muldf3+0x178>
    25d8:	00050913          	mv	s2,a0
    25dc:	7ff00993          	li	s3,2047
    25e0:	00300b93          	li	s7,3
    25e4:	f11ff06f          	j	24f4 <__muldf3+0x74>
    25e8:	00000493          	li	s1,0
    25ec:	00000993          	li	s3,0
    25f0:	00100b93          	li	s7,1
    25f4:	f01ff06f          	j	24f4 <__muldf3+0x74>
    25f8:	00000493          	li	s1,0
    25fc:	7ff00993          	li	s3,2047
    2600:	00200b93          	li	s7,2
    2604:	ef1ff06f          	j	24f4 <__muldf3+0x74>
    2608:	016467b3          	or	a5,s0,s6
    260c:	06078e63          	beqz	a5,2688 <__muldf3+0x208>
    2610:	04040063          	beqz	s0,2650 <__muldf3+0x1d0>
    2614:	00040513          	mv	a0,s0
    2618:	169010ef          	jal	ra,3f80 <__clzsi2>
    261c:	ff550693          	addi	a3,a0,-11
    2620:	01c00793          	li	a5,28
    2624:	02d7ce63          	blt	a5,a3,2660 <__muldf3+0x1e0>
    2628:	01d00713          	li	a4,29
    262c:	ff850793          	addi	a5,a0,-8
    2630:	40d70733          	sub	a4,a4,a3
    2634:	00f41433          	sll	s0,s0,a5
    2638:	00eb5733          	srl	a4,s6,a4
    263c:	00876433          	or	s0,a4,s0
    2640:	00fb17b3          	sll	a5,s6,a5
    2644:	c0d00713          	li	a4,-1011
    2648:	40a70533          	sub	a0,a4,a0
    264c:	ee5ff06f          	j	2530 <__muldf3+0xb0>
    2650:	000b0513          	mv	a0,s6
    2654:	12d010ef          	jal	ra,3f80 <__clzsi2>
    2658:	02050513          	addi	a0,a0,32
    265c:	fc1ff06f          	j	261c <__muldf3+0x19c>
    2660:	fd850413          	addi	s0,a0,-40
    2664:	008b1433          	sll	s0,s6,s0
    2668:	00000793          	li	a5,0
    266c:	fd9ff06f          	j	2644 <__muldf3+0x1c4>
    2670:	016467b3          	or	a5,s0,s6
    2674:	02078263          	beqz	a5,2698 <__muldf3+0x218>
    2678:	000b0793          	mv	a5,s6
    267c:	7ff00513          	li	a0,2047
    2680:	00300713          	li	a4,3
    2684:	eb1ff06f          	j	2534 <__muldf3+0xb4>
    2688:	00000413          	li	s0,0
    268c:	00000513          	li	a0,0
    2690:	00100713          	li	a4,1
    2694:	ea1ff06f          	j	2534 <__muldf3+0xb4>
    2698:	00000413          	li	s0,0
    269c:	7ff00513          	li	a0,2047
    26a0:	00200713          	li	a4,2
    26a4:	e91ff06f          	j	2534 <__muldf3+0xb4>
    26a8:	000102b7          	lui	t0,0x10
    26ac:	fff28313          	addi	t1,t0,-1 # ffff <__heap_start+0xafff>
    26b0:	01095f13          	srli	t5,s2,0x10
    26b4:	0107df93          	srli	t6,a5,0x10
    26b8:	00697933          	and	s2,s2,t1
    26bc:	0067f7b3          	and	a5,a5,t1
    26c0:	00090513          	mv	a0,s2
    26c4:	00078593          	mv	a1,a5
    26c8:	7e0010ef          	jal	ra,3ea8 <__mulsi3>
    26cc:	00050e93          	mv	t4,a0
    26d0:	000f8593          	mv	a1,t6
    26d4:	00090513          	mv	a0,s2
    26d8:	7d0010ef          	jal	ra,3ea8 <__mulsi3>
    26dc:	00050e13          	mv	t3,a0
    26e0:	00078593          	mv	a1,a5
    26e4:	000f0513          	mv	a0,t5
    26e8:	7c0010ef          	jal	ra,3ea8 <__mulsi3>
    26ec:	00050a13          	mv	s4,a0
    26f0:	000f8593          	mv	a1,t6
    26f4:	000f0513          	mv	a0,t5
    26f8:	7b0010ef          	jal	ra,3ea8 <__mulsi3>
    26fc:	010ed713          	srli	a4,t4,0x10
    2700:	014e0e33          	add	t3,t3,s4
    2704:	01c70733          	add	a4,a4,t3
    2708:	00050393          	mv	t2,a0
    270c:	01477463          	bgeu	a4,s4,2714 <__muldf3+0x294>
    2710:	005503b3          	add	t2,a0,t0
    2714:	00677e33          	and	t3,a4,t1
    2718:	006efeb3          	and	t4,t4,t1
    271c:	01045a13          	srli	s4,s0,0x10
    2720:	010e1e13          	slli	t3,t3,0x10
    2724:	00647433          	and	s0,s0,t1
    2728:	01075293          	srli	t0,a4,0x10
    272c:	01de0e33          	add	t3,t3,t4
    2730:	00090513          	mv	a0,s2
    2734:	00040593          	mv	a1,s0
    2738:	770010ef          	jal	ra,3ea8 <__mulsi3>
    273c:	00050e93          	mv	t4,a0
    2740:	000a0593          	mv	a1,s4
    2744:	00090513          	mv	a0,s2
    2748:	760010ef          	jal	ra,3ea8 <__mulsi3>
    274c:	00050713          	mv	a4,a0
    2750:	00040593          	mv	a1,s0
    2754:	000f0513          	mv	a0,t5
    2758:	750010ef          	jal	ra,3ea8 <__mulsi3>
    275c:	00050313          	mv	t1,a0
    2760:	000a0593          	mv	a1,s4
    2764:	000f0513          	mv	a0,t5
    2768:	740010ef          	jal	ra,3ea8 <__mulsi3>
    276c:	010ed693          	srli	a3,t4,0x10
    2770:	00670733          	add	a4,a4,t1
    2774:	00e686b3          	add	a3,a3,a4
    2778:	0066f663          	bgeu	a3,t1,2784 <__muldf3+0x304>
    277c:	00010737          	lui	a4,0x10
    2780:	00e50533          	add	a0,a0,a4
    2784:	00010ab7          	lui	s5,0x10
    2788:	fffa8613          	addi	a2,s5,-1 # ffff <__heap_start+0xafff>
    278c:	0106d713          	srli	a4,a3,0x10
    2790:	00c6f6b3          	and	a3,a3,a2
    2794:	01069693          	slli	a3,a3,0x10
    2798:	00cefeb3          	and	t4,t4,a2
    279c:	00a70f33          	add	t5,a4,a0
    27a0:	01d68eb3          	add	t4,a3,t4
    27a4:	0104d713          	srli	a4,s1,0x10
    27a8:	00c4f4b3          	and	s1,s1,a2
    27ac:	01d282b3          	add	t0,t0,t4
    27b0:	00048513          	mv	a0,s1
    27b4:	00078593          	mv	a1,a5
    27b8:	6f0010ef          	jal	ra,3ea8 <__mulsi3>
    27bc:	00050913          	mv	s2,a0
    27c0:	000f8593          	mv	a1,t6
    27c4:	00048513          	mv	a0,s1
    27c8:	6e0010ef          	jal	ra,3ea8 <__mulsi3>
    27cc:	00050313          	mv	t1,a0
    27d0:	00078593          	mv	a1,a5
    27d4:	00070513          	mv	a0,a4
    27d8:	6d0010ef          	jal	ra,3ea8 <__mulsi3>
    27dc:	00050b13          	mv	s6,a0
    27e0:	000f8593          	mv	a1,t6
    27e4:	00070513          	mv	a0,a4
    27e8:	6c0010ef          	jal	ra,3ea8 <__mulsi3>
    27ec:	01095793          	srli	a5,s2,0x10
    27f0:	01630333          	add	t1,t1,s6
    27f4:	006787b3          	add	a5,a5,t1
    27f8:	0167f463          	bgeu	a5,s6,2800 <__muldf3+0x380>
    27fc:	01550533          	add	a0,a0,s5
    2800:	00010ab7          	lui	s5,0x10
    2804:	fffa8693          	addi	a3,s5,-1 # ffff <__heap_start+0xafff>
    2808:	00d7f333          	and	t1,a5,a3
    280c:	0107d613          	srli	a2,a5,0x10
    2810:	00d97933          	and	s2,s2,a3
    2814:	01031313          	slli	t1,t1,0x10
    2818:	00a60fb3          	add	t6,a2,a0
    281c:	01230333          	add	t1,t1,s2
    2820:	00048513          	mv	a0,s1
    2824:	00040593          	mv	a1,s0
    2828:	680010ef          	jal	ra,3ea8 <__mulsi3>
    282c:	00050793          	mv	a5,a0
    2830:	000a0593          	mv	a1,s4
    2834:	00048513          	mv	a0,s1
    2838:	670010ef          	jal	ra,3ea8 <__mulsi3>
    283c:	00050493          	mv	s1,a0
    2840:	00040593          	mv	a1,s0
    2844:	00070513          	mv	a0,a4
    2848:	660010ef          	jal	ra,3ea8 <__mulsi3>
    284c:	00050913          	mv	s2,a0
    2850:	000a0593          	mv	a1,s4
    2854:	00070513          	mv	a0,a4
    2858:	650010ef          	jal	ra,3ea8 <__mulsi3>
    285c:	0107d693          	srli	a3,a5,0x10
    2860:	012484b3          	add	s1,s1,s2
    2864:	009686b3          	add	a3,a3,s1
    2868:	0126f463          	bgeu	a3,s2,2870 <__muldf3+0x3f0>
    286c:	01550533          	add	a0,a0,s5
    2870:	00010637          	lui	a2,0x10
    2874:	fff60613          	addi	a2,a2,-1 # ffff <__heap_start+0xafff>
    2878:	00c6f733          	and	a4,a3,a2
    287c:	00c7f7b3          	and	a5,a5,a2
    2880:	01071713          	slli	a4,a4,0x10
    2884:	007282b3          	add	t0,t0,t2
    2888:	00f70733          	add	a4,a4,a5
    288c:	01d2beb3          	sltu	t4,t0,t4
    2890:	01e70733          	add	a4,a4,t5
    2894:	01d70433          	add	s0,a4,t4
    2898:	006282b3          	add	t0,t0,t1
    289c:	01f40633          	add	a2,s0,t6
    28a0:	0062b333          	sltu	t1,t0,t1
    28a4:	006605b3          	add	a1,a2,t1
    28a8:	01e73733          	sltu	a4,a4,t5
    28ac:	01d43433          	sltu	s0,s0,t4
    28b0:	00876433          	or	s0,a4,s0
    28b4:	0106d693          	srli	a3,a3,0x10
    28b8:	01f63633          	sltu	a2,a2,t6
    28bc:	0065b333          	sltu	t1,a1,t1
    28c0:	00d40433          	add	s0,s0,a3
    28c4:	00666333          	or	t1,a2,t1
    28c8:	00640433          	add	s0,s0,t1
    28cc:	00929793          	slli	a5,t0,0x9
    28d0:	00a40433          	add	s0,s0,a0
    28d4:	01c7e7b3          	or	a5,a5,t3
    28d8:	00941413          	slli	s0,s0,0x9
    28dc:	0175d513          	srli	a0,a1,0x17
    28e0:	00f037b3          	snez	a5,a5
    28e4:	0172de13          	srli	t3,t0,0x17
    28e8:	00959713          	slli	a4,a1,0x9
    28ec:	00a46433          	or	s0,s0,a0
    28f0:	01c7e7b3          	or	a5,a5,t3
    28f4:	00e7e7b3          	or	a5,a5,a4
    28f8:	00741713          	slli	a4,s0,0x7
    28fc:	10075263          	bgez	a4,2a00 <__muldf3+0x580>
    2900:	0017d713          	srli	a4,a5,0x1
    2904:	0017f793          	andi	a5,a5,1
    2908:	00f767b3          	or	a5,a4,a5
    290c:	01f41713          	slli	a4,s0,0x1f
    2910:	00e7e7b3          	or	a5,a5,a4
    2914:	00145413          	srli	s0,s0,0x1
    2918:	3ff88693          	addi	a3,a7,1023
    291c:	0ed05663          	blez	a3,2a08 <__muldf3+0x588>
    2920:	0077f713          	andi	a4,a5,7
    2924:	02070063          	beqz	a4,2944 <__muldf3+0x4c4>
    2928:	00f7f713          	andi	a4,a5,15
    292c:	00400613          	li	a2,4
    2930:	00c70a63          	beq	a4,a2,2944 <__muldf3+0x4c4>
    2934:	00478713          	addi	a4,a5,4 # 800004 <__heap_start+0x7fb004>
    2938:	00f737b3          	sltu	a5,a4,a5
    293c:	00f40433          	add	s0,s0,a5
    2940:	00070793          	mv	a5,a4
    2944:	00741713          	slli	a4,s0,0x7
    2948:	00075a63          	bgez	a4,295c <__muldf3+0x4dc>
    294c:	ff000737          	lui	a4,0xff000
    2950:	fff70713          	addi	a4,a4,-1 # feffffff <__heap_start+0xfeffafff>
    2954:	00e47433          	and	s0,s0,a4
    2958:	40088693          	addi	a3,a7,1024
    295c:	7fe00713          	li	a4,2046
    2960:	16d74663          	blt	a4,a3,2acc <__muldf3+0x64c>
    2964:	0037d713          	srli	a4,a5,0x3
    2968:	01d41793          	slli	a5,s0,0x1d
    296c:	00e7e7b3          	or	a5,a5,a4
    2970:	00345413          	srli	s0,s0,0x3
    2974:	00c41413          	slli	s0,s0,0xc
    2978:	7ff6f713          	andi	a4,a3,2047
    297c:	01471713          	slli	a4,a4,0x14
    2980:	00c45413          	srli	s0,s0,0xc
    2984:	00e46433          	or	s0,s0,a4
    2988:	01f81813          	slli	a6,a6,0x1f
    298c:	01046733          	or	a4,s0,a6
    2990:	02c12083          	lw	ra,44(sp)
    2994:	02812403          	lw	s0,40(sp)
    2998:	02412483          	lw	s1,36(sp)
    299c:	02012903          	lw	s2,32(sp)
    29a0:	01c12983          	lw	s3,28(sp)
    29a4:	01812a03          	lw	s4,24(sp)
    29a8:	01412a83          	lw	s5,20(sp)
    29ac:	01012b03          	lw	s6,16(sp)
    29b0:	00c12b83          	lw	s7,12(sp)
    29b4:	00078513          	mv	a0,a5
    29b8:	00070593          	mv	a1,a4
    29bc:	03010113          	addi	sp,sp,48
    29c0:	00008067          	ret
    29c4:	000a0813          	mv	a6,s4
    29c8:	00048413          	mv	s0,s1
    29cc:	00090793          	mv	a5,s2
    29d0:	000b8713          	mv	a4,s7
    29d4:	00200693          	li	a3,2
    29d8:	0ed70a63          	beq	a4,a3,2acc <__muldf3+0x64c>
    29dc:	00300693          	li	a3,3
    29e0:	0cd70c63          	beq	a4,a3,2ab8 <__muldf3+0x638>
    29e4:	00100693          	li	a3,1
    29e8:	f2d718e3          	bne	a4,a3,2918 <__muldf3+0x498>
    29ec:	00000413          	li	s0,0
    29f0:	00000793          	li	a5,0
    29f4:	0880006f          	j	2a7c <__muldf3+0x5fc>
    29f8:	000a8813          	mv	a6,s5
    29fc:	fd9ff06f          	j	29d4 <__muldf3+0x554>
    2a00:	00098893          	mv	a7,s3
    2a04:	f15ff06f          	j	2918 <__muldf3+0x498>
    2a08:	00100613          	li	a2,1
    2a0c:	40d60633          	sub	a2,a2,a3
    2a10:	03800713          	li	a4,56
    2a14:	fcc74ce3          	blt	a4,a2,29ec <__muldf3+0x56c>
    2a18:	01f00713          	li	a4,31
    2a1c:	06c74463          	blt	a4,a2,2a84 <__muldf3+0x604>
    2a20:	41e88893          	addi	a7,a7,1054
    2a24:	01141733          	sll	a4,s0,a7
    2a28:	00c7d6b3          	srl	a3,a5,a2
    2a2c:	011797b3          	sll	a5,a5,a7
    2a30:	00d76733          	or	a4,a4,a3
    2a34:	00f037b3          	snez	a5,a5
    2a38:	00f767b3          	or	a5,a4,a5
    2a3c:	00c45433          	srl	s0,s0,a2
    2a40:	0077f713          	andi	a4,a5,7
    2a44:	02070063          	beqz	a4,2a64 <__muldf3+0x5e4>
    2a48:	00f7f713          	andi	a4,a5,15
    2a4c:	00400693          	li	a3,4
    2a50:	00d70a63          	beq	a4,a3,2a64 <__muldf3+0x5e4>
    2a54:	00478713          	addi	a4,a5,4
    2a58:	00f737b3          	sltu	a5,a4,a5
    2a5c:	00f40433          	add	s0,s0,a5
    2a60:	00070793          	mv	a5,a4
    2a64:	00841713          	slli	a4,s0,0x8
    2a68:	06074a63          	bltz	a4,2adc <__muldf3+0x65c>
    2a6c:	01d41713          	slli	a4,s0,0x1d
    2a70:	0037d793          	srli	a5,a5,0x3
    2a74:	00f767b3          	or	a5,a4,a5
    2a78:	00345413          	srli	s0,s0,0x3
    2a7c:	00000693          	li	a3,0
    2a80:	ef5ff06f          	j	2974 <__muldf3+0x4f4>
    2a84:	fe100713          	li	a4,-31
    2a88:	40d70733          	sub	a4,a4,a3
    2a8c:	02000593          	li	a1,32
    2a90:	00e45733          	srl	a4,s0,a4
    2a94:	00000693          	li	a3,0
    2a98:	00b60663          	beq	a2,a1,2aa4 <__muldf3+0x624>
    2a9c:	43e88893          	addi	a7,a7,1086
    2aa0:	011416b3          	sll	a3,s0,a7
    2aa4:	00f6e7b3          	or	a5,a3,a5
    2aa8:	00f037b3          	snez	a5,a5
    2aac:	00f767b3          	or	a5,a4,a5
    2ab0:	00000413          	li	s0,0
    2ab4:	f8dff06f          	j	2a40 <__muldf3+0x5c0>
    2ab8:	00080437          	lui	s0,0x80
    2abc:	00000793          	li	a5,0
    2ac0:	7ff00693          	li	a3,2047
    2ac4:	00000813          	li	a6,0
    2ac8:	eadff06f          	j	2974 <__muldf3+0x4f4>
    2acc:	00000413          	li	s0,0
    2ad0:	00000793          	li	a5,0
    2ad4:	7ff00693          	li	a3,2047
    2ad8:	e9dff06f          	j	2974 <__muldf3+0x4f4>
    2adc:	00000413          	li	s0,0
    2ae0:	00000793          	li	a5,0
    2ae4:	00100693          	li	a3,1
    2ae8:	e8dff06f          	j	2974 <__muldf3+0x4f4>

00002aec <__addsf3>:
    2aec:	00800737          	lui	a4,0x800
    2af0:	ff010113          	addi	sp,sp,-16
    2af4:	fff70713          	addi	a4,a4,-1 # 7fffff <__heap_start+0x7fafff>
    2af8:	00a777b3          	and	a5,a4,a0
    2afc:	00912223          	sw	s1,4(sp)
    2b00:	01212023          	sw	s2,0(sp)
    2b04:	01f55493          	srli	s1,a0,0x1f
    2b08:	01755913          	srli	s2,a0,0x17
    2b0c:	0175d513          	srli	a0,a1,0x17
    2b10:	00b77733          	and	a4,a4,a1
    2b14:	0ff97913          	andi	s2,s2,255
    2b18:	0ff57513          	andi	a0,a0,255
    2b1c:	00112623          	sw	ra,12(sp)
    2b20:	00812423          	sw	s0,8(sp)
    2b24:	01f5d593          	srli	a1,a1,0x1f
    2b28:	00379793          	slli	a5,a5,0x3
    2b2c:	00371713          	slli	a4,a4,0x3
    2b30:	40a906b3          	sub	a3,s2,a0
    2b34:	18b49463          	bne	s1,a1,2cbc <__addsf3+0x1d0>
    2b38:	08d05c63          	blez	a3,2bd0 <__addsf3+0xe4>
    2b3c:	04051c63          	bnez	a0,2b94 <__addsf3+0xa8>
    2b40:	34070663          	beqz	a4,2e8c <__addsf3+0x3a0>
    2b44:	fff68693          	addi	a3,a3,-1
    2b48:	02069e63          	bnez	a3,2b84 <__addsf3+0x98>
    2b4c:	00e787b3          	add	a5,a5,a4
    2b50:	00090513          	mv	a0,s2
    2b54:	00579713          	slli	a4,a5,0x5
    2b58:	10075c63          	bgez	a4,2c70 <__addsf3+0x184>
    2b5c:	00150513          	addi	a0,a0,1
    2b60:	0ff00713          	li	a4,255
    2b64:	32e50e63          	beq	a0,a4,2ea0 <__addsf3+0x3b4>
    2b68:	7e000737          	lui	a4,0x7e000
    2b6c:	0017f693          	andi	a3,a5,1
    2b70:	fff70713          	addi	a4,a4,-1 # 7dffffff <__heap_start+0x7dffafff>
    2b74:	0017d793          	srli	a5,a5,0x1
    2b78:	00e7f7b3          	and	a5,a5,a4
    2b7c:	00d7e7b3          	or	a5,a5,a3
    2b80:	0f00006f          	j	2c70 <__addsf3+0x184>
    2b84:	0ff00613          	li	a2,255
    2b88:	00c91e63          	bne	s2,a2,2ba4 <__addsf3+0xb8>
    2b8c:	0ff00513          	li	a0,255
    2b90:	0e00006f          	j	2c70 <__addsf3+0x184>
    2b94:	0ff00613          	li	a2,255
    2b98:	fec90ae3          	beq	s2,a2,2b8c <__addsf3+0xa0>
    2b9c:	04000637          	lui	a2,0x4000
    2ba0:	00c76733          	or	a4,a4,a2
    2ba4:	01b00613          	li	a2,27
    2ba8:	00d65663          	bge	a2,a3,2bb4 <__addsf3+0xc8>
    2bac:	00100713          	li	a4,1
    2bb0:	f9dff06f          	j	2b4c <__addsf3+0x60>
    2bb4:	02000613          	li	a2,32
    2bb8:	00d755b3          	srl	a1,a4,a3
    2bbc:	40d606b3          	sub	a3,a2,a3
    2bc0:	00d71733          	sll	a4,a4,a3
    2bc4:	00e03733          	snez	a4,a4
    2bc8:	00e5e733          	or	a4,a1,a4
    2bcc:	f81ff06f          	j	2b4c <__addsf3+0x60>
    2bd0:	06068663          	beqz	a3,2c3c <__addsf3+0x150>
    2bd4:	41250633          	sub	a2,a0,s2
    2bd8:	02091463          	bnez	s2,2c00 <__addsf3+0x114>
    2bdc:	00078e63          	beqz	a5,2bf8 <__addsf3+0x10c>
    2be0:	fff60613          	addi	a2,a2,-1 # 3ffffff <__heap_start+0x3ffafff>
    2be4:	00061663          	bnez	a2,2bf0 <__addsf3+0x104>
    2be8:	00e787b3          	add	a5,a5,a4
    2bec:	f69ff06f          	j	2b54 <__addsf3+0x68>
    2bf0:	0ff00693          	li	a3,255
    2bf4:	00d51e63          	bne	a0,a3,2c10 <__addsf3+0x124>
    2bf8:	00070793          	mv	a5,a4
    2bfc:	0740006f          	j	2c70 <__addsf3+0x184>
    2c00:	0ff00693          	li	a3,255
    2c04:	fed50ae3          	beq	a0,a3,2bf8 <__addsf3+0x10c>
    2c08:	040006b7          	lui	a3,0x4000
    2c0c:	00d7e7b3          	or	a5,a5,a3
    2c10:	01b00693          	li	a3,27
    2c14:	00c6d663          	bge	a3,a2,2c20 <__addsf3+0x134>
    2c18:	00100793          	li	a5,1
    2c1c:	fcdff06f          	j	2be8 <__addsf3+0xfc>
    2c20:	02000693          	li	a3,32
    2c24:	40c686b3          	sub	a3,a3,a2
    2c28:	00c7d5b3          	srl	a1,a5,a2
    2c2c:	00d797b3          	sll	a5,a5,a3
    2c30:	00f037b3          	snez	a5,a5
    2c34:	00f5e7b3          	or	a5,a1,a5
    2c38:	fb1ff06f          	j	2be8 <__addsf3+0xfc>
    2c3c:	00190693          	addi	a3,s2,1 # 80001 <__heap_start+0x7b001>
    2c40:	0fe6f513          	andi	a0,a3,254
    2c44:	06051063          	bnez	a0,2ca4 <__addsf3+0x1b8>
    2c48:	04091263          	bnez	s2,2c8c <__addsf3+0x1a0>
    2c4c:	fa0786e3          	beqz	a5,2bf8 <__addsf3+0x10c>
    2c50:	02070063          	beqz	a4,2c70 <__addsf3+0x184>
    2c54:	00e787b3          	add	a5,a5,a4
    2c58:	00579713          	slli	a4,a5,0x5
    2c5c:	00075a63          	bgez	a4,2c70 <__addsf3+0x184>
    2c60:	fc000737          	lui	a4,0xfc000
    2c64:	fff70713          	addi	a4,a4,-1 # fbffffff <__heap_start+0xfbffafff>
    2c68:	00e7f7b3          	and	a5,a5,a4
    2c6c:	00100513          	li	a0,1
    2c70:	0077f713          	andi	a4,a5,7
    2c74:	22070863          	beqz	a4,2ea4 <__addsf3+0x3b8>
    2c78:	00f7f713          	andi	a4,a5,15
    2c7c:	00400693          	li	a3,4
    2c80:	22d70263          	beq	a4,a3,2ea4 <__addsf3+0x3b8>
    2c84:	00478793          	addi	a5,a5,4
    2c88:	21c0006f          	j	2ea4 <__addsf3+0x3b8>
    2c8c:	20078463          	beqz	a5,2e94 <__addsf3+0x3a8>
    2c90:	ee070ee3          	beqz	a4,2b8c <__addsf3+0xa0>
    2c94:	00000493          	li	s1,0
    2c98:	020007b7          	lui	a5,0x2000
    2c9c:	0ff00513          	li	a0,255
    2ca0:	2040006f          	j	2ea4 <__addsf3+0x3b8>
    2ca4:	0ff00613          	li	a2,255
    2ca8:	1ec68a63          	beq	a3,a2,2e9c <__addsf3+0x3b0>
    2cac:	00e787b3          	add	a5,a5,a4
    2cb0:	0017d793          	srli	a5,a5,0x1
    2cb4:	00068513          	mv	a0,a3
    2cb8:	fb9ff06f          	j	2c70 <__addsf3+0x184>
    2cbc:	08d05863          	blez	a3,2d4c <__addsf3+0x260>
    2cc0:	04051863          	bnez	a0,2d10 <__addsf3+0x224>
    2cc4:	00090513          	mv	a0,s2
    2cc8:	fa0704e3          	beqz	a4,2c70 <__addsf3+0x184>
    2ccc:	fff68693          	addi	a3,a3,-1 # 3ffffff <__heap_start+0x3ffafff>
    2cd0:	02069263          	bnez	a3,2cf4 <__addsf3+0x208>
    2cd4:	40e787b3          	sub	a5,a5,a4
    2cd8:	00579713          	slli	a4,a5,0x5
    2cdc:	f8075ae3          	bgez	a4,2c70 <__addsf3+0x184>
    2ce0:	04000437          	lui	s0,0x4000
    2ce4:	fff40413          	addi	s0,s0,-1 # 3ffffff <__heap_start+0x3ffafff>
    2ce8:	0087f433          	and	s0,a5,s0
    2cec:	00050913          	mv	s2,a0
    2cf0:	13c0006f          	j	2e2c <__addsf3+0x340>
    2cf4:	0ff00613          	li	a2,255
    2cf8:	0ff00513          	li	a0,255
    2cfc:	f6c90ae3          	beq	s2,a2,2c70 <__addsf3+0x184>
    2d00:	01b00613          	li	a2,27
    2d04:	02d65263          	bge	a2,a3,2d28 <__addsf3+0x23c>
    2d08:	00100713          	li	a4,1
    2d0c:	0340006f          	j	2d40 <__addsf3+0x254>
    2d10:	0ff00613          	li	a2,255
    2d14:	0ff00513          	li	a0,255
    2d18:	f4c90ce3          	beq	s2,a2,2c70 <__addsf3+0x184>
    2d1c:	04000637          	lui	a2,0x4000
    2d20:	00c76733          	or	a4,a4,a2
    2d24:	fddff06f          	j	2d00 <__addsf3+0x214>
    2d28:	02000613          	li	a2,32
    2d2c:	00d755b3          	srl	a1,a4,a3
    2d30:	40d606b3          	sub	a3,a2,a3
    2d34:	00d71733          	sll	a4,a4,a3
    2d38:	00e03733          	snez	a4,a4
    2d3c:	00e5e733          	or	a4,a1,a4
    2d40:	40e787b3          	sub	a5,a5,a4
    2d44:	00090513          	mv	a0,s2
    2d48:	f91ff06f          	j	2cd8 <__addsf3+0x1ec>
    2d4c:	06068a63          	beqz	a3,2dc0 <__addsf3+0x2d4>
    2d50:	41250633          	sub	a2,a0,s2
    2d54:	02091863          	bnez	s2,2d84 <__addsf3+0x298>
    2d58:	02078063          	beqz	a5,2d78 <__addsf3+0x28c>
    2d5c:	fff60613          	addi	a2,a2,-1 # 3ffffff <__heap_start+0x3ffafff>
    2d60:	00061863          	bnez	a2,2d70 <__addsf3+0x284>
    2d64:	40f707b3          	sub	a5,a4,a5
    2d68:	00058493          	mv	s1,a1
    2d6c:	f6dff06f          	j	2cd8 <__addsf3+0x1ec>
    2d70:	0ff00693          	li	a3,255
    2d74:	02d51063          	bne	a0,a3,2d94 <__addsf3+0x2a8>
    2d78:	00070793          	mv	a5,a4
    2d7c:	00058493          	mv	s1,a1
    2d80:	ef1ff06f          	j	2c70 <__addsf3+0x184>
    2d84:	0ff00693          	li	a3,255
    2d88:	fed508e3          	beq	a0,a3,2d78 <__addsf3+0x28c>
    2d8c:	040006b7          	lui	a3,0x4000
    2d90:	00d7e7b3          	or	a5,a5,a3
    2d94:	01b00693          	li	a3,27
    2d98:	00c6d663          	bge	a3,a2,2da4 <__addsf3+0x2b8>
    2d9c:	00100793          	li	a5,1
    2da0:	fc5ff06f          	j	2d64 <__addsf3+0x278>
    2da4:	02000693          	li	a3,32
    2da8:	40c686b3          	sub	a3,a3,a2
    2dac:	00c7d833          	srl	a6,a5,a2
    2db0:	00d797b3          	sll	a5,a5,a3
    2db4:	00f037b3          	snez	a5,a5
    2db8:	00f867b3          	or	a5,a6,a5
    2dbc:	fa9ff06f          	j	2d64 <__addsf3+0x278>
    2dc0:	00190513          	addi	a0,s2,1
    2dc4:	0fe57513          	andi	a0,a0,254
    2dc8:	04051863          	bnez	a0,2e18 <__addsf3+0x32c>
    2dcc:	02091c63          	bnez	s2,2e04 <__addsf3+0x318>
    2dd0:	00079a63          	bnez	a5,2de4 <__addsf3+0x2f8>
    2dd4:	fa0712e3          	bnez	a4,2d78 <__addsf3+0x28c>
    2dd8:	00000793          	li	a5,0
    2ddc:	00000493          	li	s1,0
    2de0:	0c40006f          	j	2ea4 <__addsf3+0x3b8>
    2de4:	e80706e3          	beqz	a4,2c70 <__addsf3+0x184>
    2de8:	40e786b3          	sub	a3,a5,a4
    2dec:	00569613          	slli	a2,a3,0x5
    2df0:	40f707b3          	sub	a5,a4,a5
    2df4:	f80644e3          	bltz	a2,2d7c <__addsf3+0x290>
    2df8:	fe0680e3          	beqz	a3,2dd8 <__addsf3+0x2ec>
    2dfc:	00068793          	mv	a5,a3
    2e00:	e71ff06f          	j	2c70 <__addsf3+0x184>
    2e04:	e80796e3          	bnez	a5,2c90 <__addsf3+0x1a4>
    2e08:	e80706e3          	beqz	a4,2c94 <__addsf3+0x1a8>
    2e0c:	00070793          	mv	a5,a4
    2e10:	00058493          	mv	s1,a1
    2e14:	d79ff06f          	j	2b8c <__addsf3+0xa0>
    2e18:	40e78433          	sub	s0,a5,a4
    2e1c:	00541693          	slli	a3,s0,0x5
    2e20:	0406d463          	bgez	a3,2e68 <__addsf3+0x37c>
    2e24:	40f70433          	sub	s0,a4,a5
    2e28:	00058493          	mv	s1,a1
    2e2c:	00040513          	mv	a0,s0
    2e30:	150010ef          	jal	ra,3f80 <__clzsi2>
    2e34:	ffb50513          	addi	a0,a0,-5
    2e38:	00a41433          	sll	s0,s0,a0
    2e3c:	03254e63          	blt	a0,s2,2e78 <__addsf3+0x38c>
    2e40:	41250533          	sub	a0,a0,s2
    2e44:	00150513          	addi	a0,a0,1
    2e48:	02000713          	li	a4,32
    2e4c:	00a457b3          	srl	a5,s0,a0
    2e50:	40a70533          	sub	a0,a4,a0
    2e54:	00a41433          	sll	s0,s0,a0
    2e58:	00803433          	snez	s0,s0
    2e5c:	0087e7b3          	or	a5,a5,s0
    2e60:	00000513          	li	a0,0
    2e64:	e0dff06f          	j	2c70 <__addsf3+0x184>
    2e68:	fc0412e3          	bnez	s0,2e2c <__addsf3+0x340>
    2e6c:	00000793          	li	a5,0
    2e70:	00000513          	li	a0,0
    2e74:	f69ff06f          	j	2ddc <__addsf3+0x2f0>
    2e78:	fc0007b7          	lui	a5,0xfc000
    2e7c:	fff78793          	addi	a5,a5,-1 # fbffffff <__heap_start+0xfbffafff>
    2e80:	40a90533          	sub	a0,s2,a0
    2e84:	00f477b3          	and	a5,s0,a5
    2e88:	de9ff06f          	j	2c70 <__addsf3+0x184>
    2e8c:	00090513          	mv	a0,s2
    2e90:	de1ff06f          	j	2c70 <__addsf3+0x184>
    2e94:	00070793          	mv	a5,a4
    2e98:	cf5ff06f          	j	2b8c <__addsf3+0xa0>
    2e9c:	0ff00513          	li	a0,255
    2ea0:	00000793          	li	a5,0
    2ea4:	00579713          	slli	a4,a5,0x5
    2ea8:	00075e63          	bgez	a4,2ec4 <__addsf3+0x3d8>
    2eac:	00150513          	addi	a0,a0,1
    2eb0:	0ff00713          	li	a4,255
    2eb4:	04e50e63          	beq	a0,a4,2f10 <__addsf3+0x424>
    2eb8:	fc000737          	lui	a4,0xfc000
    2ebc:	fff70713          	addi	a4,a4,-1 # fbffffff <__heap_start+0xfbffafff>
    2ec0:	00e7f7b3          	and	a5,a5,a4
    2ec4:	0ff00713          	li	a4,255
    2ec8:	0037d793          	srli	a5,a5,0x3
    2ecc:	00e51863          	bne	a0,a4,2edc <__addsf3+0x3f0>
    2ed0:	00078663          	beqz	a5,2edc <__addsf3+0x3f0>
    2ed4:	004007b7          	lui	a5,0x400
    2ed8:	00000493          	li	s1,0
    2edc:	0ff57513          	andi	a0,a0,255
    2ee0:	00c12083          	lw	ra,12(sp)
    2ee4:	00812403          	lw	s0,8(sp)
    2ee8:	00979793          	slli	a5,a5,0x9
    2eec:	01751713          	slli	a4,a0,0x17
    2ef0:	0097d513          	srli	a0,a5,0x9
    2ef4:	01f49493          	slli	s1,s1,0x1f
    2ef8:	00e56533          	or	a0,a0,a4
    2efc:	00956533          	or	a0,a0,s1
    2f00:	00012903          	lw	s2,0(sp)
    2f04:	00412483          	lw	s1,4(sp)
    2f08:	01010113          	addi	sp,sp,16
    2f0c:	00008067          	ret
    2f10:	00000793          	li	a5,0
    2f14:	fb1ff06f          	j	2ec4 <__addsf3+0x3d8>

00002f18 <__divsf3>:
    2f18:	fd010113          	addi	sp,sp,-48
    2f1c:	02912223          	sw	s1,36(sp)
    2f20:	01755493          	srli	s1,a0,0x17
    2f24:	01312e23          	sw	s3,28(sp)
    2f28:	01512a23          	sw	s5,20(sp)
    2f2c:	01612823          	sw	s6,16(sp)
    2f30:	00951a93          	slli	s5,a0,0x9
    2f34:	02112623          	sw	ra,44(sp)
    2f38:	02812423          	sw	s0,40(sp)
    2f3c:	03212023          	sw	s2,32(sp)
    2f40:	01412c23          	sw	s4,24(sp)
    2f44:	01712623          	sw	s7,12(sp)
    2f48:	01812423          	sw	s8,8(sp)
    2f4c:	01912223          	sw	s9,4(sp)
    2f50:	0ff4f493          	andi	s1,s1,255
    2f54:	00058b13          	mv	s6,a1
    2f58:	009ada93          	srli	s5,s5,0x9
    2f5c:	01f55993          	srli	s3,a0,0x1f
    2f60:	08048463          	beqz	s1,2fe8 <__divsf3+0xd0>
    2f64:	0ff00793          	li	a5,255
    2f68:	0af48063          	beq	s1,a5,3008 <__divsf3+0xf0>
    2f6c:	003a9a93          	slli	s5,s5,0x3
    2f70:	040007b7          	lui	a5,0x4000
    2f74:	00faeab3          	or	s5,s5,a5
    2f78:	f8148493          	addi	s1,s1,-127
    2f7c:	00000b93          	li	s7,0
    2f80:	017b5513          	srli	a0,s6,0x17
    2f84:	009b1413          	slli	s0,s6,0x9
    2f88:	0ff57513          	andi	a0,a0,255
    2f8c:	00945413          	srli	s0,s0,0x9
    2f90:	01fb5b13          	srli	s6,s6,0x1f
    2f94:	08050a63          	beqz	a0,3028 <__divsf3+0x110>
    2f98:	0ff00793          	li	a5,255
    2f9c:	0af50663          	beq	a0,a5,3048 <__divsf3+0x130>
    2fa0:	00341413          	slli	s0,s0,0x3
    2fa4:	040007b7          	lui	a5,0x4000
    2fa8:	00f46433          	or	s0,s0,a5
    2fac:	f8150513          	addi	a0,a0,-127
    2fb0:	00000793          	li	a5,0
    2fb4:	002b9713          	slli	a4,s7,0x2
    2fb8:	00f76733          	or	a4,a4,a5
    2fbc:	fff70713          	addi	a4,a4,-1
    2fc0:	00e00693          	li	a3,14
    2fc4:	0169c933          	xor	s2,s3,s6
    2fc8:	40a48a33          	sub	s4,s1,a0
    2fcc:	08e6ee63          	bltu	a3,a4,3068 <__divsf3+0x150>
    2fd0:	000046b7          	lui	a3,0x4
    2fd4:	00271713          	slli	a4,a4,0x2
    2fd8:	04468693          	addi	a3,a3,68 # 4044 <__clzsi2+0xc4>
    2fdc:	00d70733          	add	a4,a4,a3
    2fe0:	00072703          	lw	a4,0(a4)
    2fe4:	00070067          	jr	a4
    2fe8:	020a8a63          	beqz	s5,301c <__divsf3+0x104>
    2fec:	000a8513          	mv	a0,s5
    2ff0:	791000ef          	jal	ra,3f80 <__clzsi2>
    2ff4:	ffb50793          	addi	a5,a0,-5
    2ff8:	f8a00493          	li	s1,-118
    2ffc:	00fa9ab3          	sll	s5,s5,a5
    3000:	40a484b3          	sub	s1,s1,a0
    3004:	f79ff06f          	j	2f7c <__divsf3+0x64>
    3008:	0ff00493          	li	s1,255
    300c:	00200b93          	li	s7,2
    3010:	f60a88e3          	beqz	s5,2f80 <__divsf3+0x68>
    3014:	00300b93          	li	s7,3
    3018:	f69ff06f          	j	2f80 <__divsf3+0x68>
    301c:	00000493          	li	s1,0
    3020:	00100b93          	li	s7,1
    3024:	f5dff06f          	j	2f80 <__divsf3+0x68>
    3028:	02040a63          	beqz	s0,305c <__divsf3+0x144>
    302c:	00040513          	mv	a0,s0
    3030:	751000ef          	jal	ra,3f80 <__clzsi2>
    3034:	ffb50793          	addi	a5,a0,-5
    3038:	00f41433          	sll	s0,s0,a5
    303c:	f8a00793          	li	a5,-118
    3040:	40a78533          	sub	a0,a5,a0
    3044:	f6dff06f          	j	2fb0 <__divsf3+0x98>
    3048:	0ff00513          	li	a0,255
    304c:	00200793          	li	a5,2
    3050:	f60402e3          	beqz	s0,2fb4 <__divsf3+0x9c>
    3054:	00300793          	li	a5,3
    3058:	f5dff06f          	j	2fb4 <__divsf3+0x9c>
    305c:	00000513          	li	a0,0
    3060:	00100793          	li	a5,1
    3064:	f51ff06f          	j	2fb4 <__divsf3+0x9c>
    3068:	00541b13          	slli	s6,s0,0x5
    306c:	128af663          	bgeu	s5,s0,3198 <__divsf3+0x280>
    3070:	fffa0a13          	addi	s4,s4,-1
    3074:	00000493          	li	s1,0
    3078:	010b5b93          	srli	s7,s6,0x10
    307c:	00010437          	lui	s0,0x10
    3080:	000b8593          	mv	a1,s7
    3084:	fff40413          	addi	s0,s0,-1 # ffff <__heap_start+0xafff>
    3088:	000a8513          	mv	a0,s5
    308c:	649000ef          	jal	ra,3ed4 <__udivsi3>
    3090:	008b7433          	and	s0,s6,s0
    3094:	00050593          	mv	a1,a0
    3098:	00050c93          	mv	s9,a0
    309c:	00040513          	mv	a0,s0
    30a0:	609000ef          	jal	ra,3ea8 <__mulsi3>
    30a4:	00050c13          	mv	s8,a0
    30a8:	000b8593          	mv	a1,s7
    30ac:	000a8513          	mv	a0,s5
    30b0:	66d000ef          	jal	ra,3f1c <__umodsi3>
    30b4:	01051513          	slli	a0,a0,0x10
    30b8:	0104d493          	srli	s1,s1,0x10
    30bc:	00a4e533          	or	a0,s1,a0
    30c0:	000c8993          	mv	s3,s9
    30c4:	01857e63          	bgeu	a0,s8,30e0 <__divsf3+0x1c8>
    30c8:	01650533          	add	a0,a0,s6
    30cc:	fffc8993          	addi	s3,s9,-1 # 7fffff <__heap_start+0x7fafff>
    30d0:	01656863          	bltu	a0,s6,30e0 <__divsf3+0x1c8>
    30d4:	01857663          	bgeu	a0,s8,30e0 <__divsf3+0x1c8>
    30d8:	ffec8993          	addi	s3,s9,-2
    30dc:	01650533          	add	a0,a0,s6
    30e0:	418504b3          	sub	s1,a0,s8
    30e4:	000b8593          	mv	a1,s7
    30e8:	00048513          	mv	a0,s1
    30ec:	5e9000ef          	jal	ra,3ed4 <__udivsi3>
    30f0:	00050593          	mv	a1,a0
    30f4:	00050c13          	mv	s8,a0
    30f8:	00040513          	mv	a0,s0
    30fc:	5ad000ef          	jal	ra,3ea8 <__mulsi3>
    3100:	00050a93          	mv	s5,a0
    3104:	000b8593          	mv	a1,s7
    3108:	00048513          	mv	a0,s1
    310c:	611000ef          	jal	ra,3f1c <__umodsi3>
    3110:	01051513          	slli	a0,a0,0x10
    3114:	000c0413          	mv	s0,s8
    3118:	01557e63          	bgeu	a0,s5,3134 <__divsf3+0x21c>
    311c:	01650533          	add	a0,a0,s6
    3120:	fffc0413          	addi	s0,s8,-1
    3124:	01656863          	bltu	a0,s6,3134 <__divsf3+0x21c>
    3128:	01557663          	bgeu	a0,s5,3134 <__divsf3+0x21c>
    312c:	ffec0413          	addi	s0,s8,-2
    3130:	01650533          	add	a0,a0,s6
    3134:	01099993          	slli	s3,s3,0x10
    3138:	41550533          	sub	a0,a0,s5
    313c:	0089e9b3          	or	s3,s3,s0
    3140:	00a03533          	snez	a0,a0
    3144:	00a9e433          	or	s0,s3,a0
    3148:	07fa0713          	addi	a4,s4,127
    314c:	0ee05663          	blez	a4,3238 <__divsf3+0x320>
    3150:	00747793          	andi	a5,s0,7
    3154:	00078a63          	beqz	a5,3168 <__divsf3+0x250>
    3158:	00f47793          	andi	a5,s0,15
    315c:	00400693          	li	a3,4
    3160:	00d78463          	beq	a5,a3,3168 <__divsf3+0x250>
    3164:	00440413          	addi	s0,s0,4
    3168:	00441793          	slli	a5,s0,0x4
    316c:	0007da63          	bgez	a5,3180 <__divsf3+0x268>
    3170:	f80007b7          	lui	a5,0xf8000
    3174:	fff78793          	addi	a5,a5,-1 # f7ffffff <__heap_start+0xf7ffafff>
    3178:	00f47433          	and	s0,s0,a5
    317c:	080a0713          	addi	a4,s4,128
    3180:	0fe00793          	li	a5,254
    3184:	00345413          	srli	s0,s0,0x3
    3188:	04e7d463          	bge	a5,a4,31d0 <__divsf3+0x2b8>
    318c:	00000413          	li	s0,0
    3190:	0ff00713          	li	a4,255
    3194:	03c0006f          	j	31d0 <__divsf3+0x2b8>
    3198:	01fa9493          	slli	s1,s5,0x1f
    319c:	001ada93          	srli	s5,s5,0x1
    31a0:	ed9ff06f          	j	3078 <__divsf3+0x160>
    31a4:	00098913          	mv	s2,s3
    31a8:	000a8413          	mv	s0,s5
    31ac:	000b8793          	mv	a5,s7
    31b0:	00200713          	li	a4,2
    31b4:	fce78ce3          	beq	a5,a4,318c <__divsf3+0x274>
    31b8:	00300713          	li	a4,3
    31bc:	0ce78863          	beq	a5,a4,328c <__divsf3+0x374>
    31c0:	00100713          	li	a4,1
    31c4:	f8e792e3          	bne	a5,a4,3148 <__divsf3+0x230>
    31c8:	00000413          	li	s0,0
    31cc:	00000713          	li	a4,0
    31d0:	00941413          	slli	s0,s0,0x9
    31d4:	0ff77713          	andi	a4,a4,255
    31d8:	01771713          	slli	a4,a4,0x17
    31dc:	00945413          	srli	s0,s0,0x9
    31e0:	01f91513          	slli	a0,s2,0x1f
    31e4:	00e46433          	or	s0,s0,a4
    31e8:	00a46533          	or	a0,s0,a0
    31ec:	02c12083          	lw	ra,44(sp)
    31f0:	02812403          	lw	s0,40(sp)
    31f4:	02412483          	lw	s1,36(sp)
    31f8:	02012903          	lw	s2,32(sp)
    31fc:	01c12983          	lw	s3,28(sp)
    3200:	01812a03          	lw	s4,24(sp)
    3204:	01412a83          	lw	s5,20(sp)
    3208:	01012b03          	lw	s6,16(sp)
    320c:	00c12b83          	lw	s7,12(sp)
    3210:	00812c03          	lw	s8,8(sp)
    3214:	00412c83          	lw	s9,4(sp)
    3218:	03010113          	addi	sp,sp,48
    321c:	00008067          	ret
    3220:	000b0913          	mv	s2,s6
    3224:	f8dff06f          	j	31b0 <__divsf3+0x298>
    3228:	00400437          	lui	s0,0x400
    322c:	00000913          	li	s2,0
    3230:	00300793          	li	a5,3
    3234:	f7dff06f          	j	31b0 <__divsf3+0x298>
    3238:	00100793          	li	a5,1
    323c:	40e787b3          	sub	a5,a5,a4
    3240:	01b00713          	li	a4,27
    3244:	f8f742e3          	blt	a4,a5,31c8 <__divsf3+0x2b0>
    3248:	09ea0513          	addi	a0,s4,158
    324c:	00f457b3          	srl	a5,s0,a5
    3250:	00a41433          	sll	s0,s0,a0
    3254:	00803433          	snez	s0,s0
    3258:	0087e433          	or	s0,a5,s0
    325c:	00747793          	andi	a5,s0,7
    3260:	00078a63          	beqz	a5,3274 <__divsf3+0x35c>
    3264:	00f47793          	andi	a5,s0,15
    3268:	00400713          	li	a4,4
    326c:	00e78463          	beq	a5,a4,3274 <__divsf3+0x35c>
    3270:	00440413          	addi	s0,s0,4 # 400004 <__heap_start+0x3fb004>
    3274:	00541793          	slli	a5,s0,0x5
    3278:	00345413          	srli	s0,s0,0x3
    327c:	f407d8e3          	bgez	a5,31cc <__divsf3+0x2b4>
    3280:	00000413          	li	s0,0
    3284:	00100713          	li	a4,1
    3288:	f49ff06f          	j	31d0 <__divsf3+0x2b8>
    328c:	00400437          	lui	s0,0x400
    3290:	0ff00713          	li	a4,255
    3294:	00000913          	li	s2,0
    3298:	f39ff06f          	j	31d0 <__divsf3+0x2b8>

0000329c <__eqsf2>:
    329c:	008007b7          	lui	a5,0x800
    32a0:	fff78793          	addi	a5,a5,-1 # 7fffff <__heap_start+0x7fafff>
    32a4:	01755713          	srli	a4,a0,0x17
    32a8:	00a7f833          	and	a6,a5,a0
    32ac:	0175d613          	srli	a2,a1,0x17
    32b0:	01f55693          	srli	a3,a0,0x1f
    32b4:	0ff77713          	andi	a4,a4,255
    32b8:	0ff00513          	li	a0,255
    32bc:	00b7f7b3          	and	a5,a5,a1
    32c0:	0ff67613          	andi	a2,a2,255
    32c4:	01f5d593          	srli	a1,a1,0x1f
    32c8:	00a71663          	bne	a4,a0,32d4 <__eqsf2+0x38>
    32cc:	00100513          	li	a0,1
    32d0:	02081a63          	bnez	a6,3304 <__eqsf2+0x68>
    32d4:	0ff00513          	li	a0,255
    32d8:	00a61663          	bne	a2,a0,32e4 <__eqsf2+0x48>
    32dc:	00100513          	li	a0,1
    32e0:	02079263          	bnez	a5,3304 <__eqsf2+0x68>
    32e4:	00100513          	li	a0,1
    32e8:	00c71e63          	bne	a4,a2,3304 <__eqsf2+0x68>
    32ec:	00f81c63          	bne	a6,a5,3304 <__eqsf2+0x68>
    32f0:	00b68863          	beq	a3,a1,3300 <__eqsf2+0x64>
    32f4:	00071863          	bnez	a4,3304 <__eqsf2+0x68>
    32f8:	01003533          	snez	a0,a6
    32fc:	00008067          	ret
    3300:	00000513          	li	a0,0
    3304:	00008067          	ret

00003308 <__gesf2>:
    3308:	01755693          	srli	a3,a0,0x17
    330c:	008007b7          	lui	a5,0x800
    3310:	fff78793          	addi	a5,a5,-1 # 7fffff <__heap_start+0x7fafff>
    3314:	0175d713          	srli	a4,a1,0x17
    3318:	0ff6f693          	andi	a3,a3,255
    331c:	0ff00813          	li	a6,255
    3320:	00a7f633          	and	a2,a5,a0
    3324:	0ff77713          	andi	a4,a4,255
    3328:	00b7f7b3          	and	a5,a5,a1
    332c:	01f55513          	srli	a0,a0,0x1f
    3330:	01f5d593          	srli	a1,a1,0x1f
    3334:	01069863          	bne	a3,a6,3344 <__gesf2+0x3c>
    3338:	06060a63          	beqz	a2,33ac <__gesf2+0xa4>
    333c:	ffe00513          	li	a0,-2
    3340:	00008067          	ret
    3344:	01071463          	bne	a4,a6,334c <__gesf2+0x44>
    3348:	fe079ae3          	bnez	a5,333c <__gesf2+0x34>
    334c:	06069263          	bnez	a3,33b0 <__gesf2+0xa8>
    3350:	00071463          	bnez	a4,3358 <__gesf2+0x50>
    3354:	04078863          	beqz	a5,33a4 <__gesf2+0x9c>
    3358:	00060c63          	beqz	a2,3370 <__gesf2+0x68>
    335c:	00b51463          	bne	a0,a1,3364 <__gesf2+0x5c>
    3360:	02d75063          	bge	a4,a3,3380 <__gesf2+0x78>
    3364:	02050c63          	beqz	a0,339c <__gesf2+0x94>
    3368:	fff00513          	li	a0,-1
    336c:	00008067          	ret
    3370:	fff00513          	li	a0,-1
    3374:	00058a63          	beqz	a1,3388 <__gesf2+0x80>
    3378:	00058513          	mv	a0,a1
    337c:	00008067          	ret
    3380:	00e6d663          	bge	a3,a4,338c <__gesf2+0x84>
    3384:	fe0502e3          	beqz	a0,3368 <__gesf2+0x60>
    3388:	00008067          	ret
    338c:	fcc7ece3          	bltu	a5,a2,3364 <__gesf2+0x5c>
    3390:	fef66ae3          	bltu	a2,a5,3384 <__gesf2+0x7c>
    3394:	00000513          	li	a0,0
    3398:	00008067          	ret
    339c:	00100513          	li	a0,1
    33a0:	00008067          	ret
    33a4:	fe0608e3          	beqz	a2,3394 <__gesf2+0x8c>
    33a8:	fbdff06f          	j	3364 <__gesf2+0x5c>
    33ac:	f8d70ee3          	beq	a4,a3,3348 <__gesf2+0x40>
    33b0:	fa0716e3          	bnez	a4,335c <__gesf2+0x54>
    33b4:	fa0788e3          	beqz	a5,3364 <__gesf2+0x5c>
    33b8:	fa5ff06f          	j	335c <__gesf2+0x54>

000033bc <__lesf2>:
    33bc:	01755693          	srli	a3,a0,0x17
    33c0:	008007b7          	lui	a5,0x800
    33c4:	fff78793          	addi	a5,a5,-1 # 7fffff <__heap_start+0x7fafff>
    33c8:	0175d713          	srli	a4,a1,0x17
    33cc:	0ff6f693          	andi	a3,a3,255
    33d0:	0ff00813          	li	a6,255
    33d4:	00a7f633          	and	a2,a5,a0
    33d8:	0ff77713          	andi	a4,a4,255
    33dc:	00b7f7b3          	and	a5,a5,a1
    33e0:	01f55513          	srli	a0,a0,0x1f
    33e4:	01f5d593          	srli	a1,a1,0x1f
    33e8:	01069863          	bne	a3,a6,33f8 <__lesf2+0x3c>
    33ec:	06060a63          	beqz	a2,3460 <__lesf2+0xa4>
    33f0:	00200513          	li	a0,2
    33f4:	00008067          	ret
    33f8:	01071463          	bne	a4,a6,3400 <__lesf2+0x44>
    33fc:	fe079ae3          	bnez	a5,33f0 <__lesf2+0x34>
    3400:	06069263          	bnez	a3,3464 <__lesf2+0xa8>
    3404:	00071463          	bnez	a4,340c <__lesf2+0x50>
    3408:	04078863          	beqz	a5,3458 <__lesf2+0x9c>
    340c:	00060c63          	beqz	a2,3424 <__lesf2+0x68>
    3410:	00b51463          	bne	a0,a1,3418 <__lesf2+0x5c>
    3414:	02d75063          	bge	a4,a3,3434 <__lesf2+0x78>
    3418:	02050c63          	beqz	a0,3450 <__lesf2+0x94>
    341c:	fff00513          	li	a0,-1
    3420:	00008067          	ret
    3424:	fff00513          	li	a0,-1
    3428:	00058a63          	beqz	a1,343c <__lesf2+0x80>
    342c:	00058513          	mv	a0,a1
    3430:	00008067          	ret
    3434:	00e6d663          	bge	a3,a4,3440 <__lesf2+0x84>
    3438:	fe0502e3          	beqz	a0,341c <__lesf2+0x60>
    343c:	00008067          	ret
    3440:	fcc7ece3          	bltu	a5,a2,3418 <__lesf2+0x5c>
    3444:	fef66ae3          	bltu	a2,a5,3438 <__lesf2+0x7c>
    3448:	00000513          	li	a0,0
    344c:	00008067          	ret
    3450:	00100513          	li	a0,1
    3454:	00008067          	ret
    3458:	fe0608e3          	beqz	a2,3448 <__lesf2+0x8c>
    345c:	fbdff06f          	j	3418 <__lesf2+0x5c>
    3460:	f8d70ee3          	beq	a4,a3,33fc <__lesf2+0x40>
    3464:	fa0716e3          	bnez	a4,3410 <__lesf2+0x54>
    3468:	fa0788e3          	beqz	a5,3418 <__lesf2+0x5c>
    346c:	fa5ff06f          	j	3410 <__lesf2+0x54>

00003470 <__mulsf3>:
    3470:	fe010113          	addi	sp,sp,-32
    3474:	01212823          	sw	s2,16(sp)
    3478:	01755913          	srli	s2,a0,0x17
    347c:	00912a23          	sw	s1,20(sp)
    3480:	01312623          	sw	s3,12(sp)
    3484:	01512223          	sw	s5,4(sp)
    3488:	00951493          	slli	s1,a0,0x9
    348c:	00112e23          	sw	ra,28(sp)
    3490:	00812c23          	sw	s0,24(sp)
    3494:	01412423          	sw	s4,8(sp)
    3498:	0ff97913          	andi	s2,s2,255
    349c:	00058a93          	mv	s5,a1
    34a0:	0094d493          	srli	s1,s1,0x9
    34a4:	01f55993          	srli	s3,a0,0x1f
    34a8:	08090663          	beqz	s2,3534 <__mulsf3+0xc4>
    34ac:	0ff00793          	li	a5,255
    34b0:	0af90263          	beq	s2,a5,3554 <__mulsf3+0xe4>
    34b4:	00349493          	slli	s1,s1,0x3
    34b8:	040007b7          	lui	a5,0x4000
    34bc:	00f4e4b3          	or	s1,s1,a5
    34c0:	f8190913          	addi	s2,s2,-127
    34c4:	00000a13          	li	s4,0
    34c8:	017ad513          	srli	a0,s5,0x17
    34cc:	009a9413          	slli	s0,s5,0x9
    34d0:	0ff57513          	andi	a0,a0,255
    34d4:	00945413          	srli	s0,s0,0x9
    34d8:	01fada93          	srli	s5,s5,0x1f
    34dc:	08050c63          	beqz	a0,3574 <__mulsf3+0x104>
    34e0:	0ff00793          	li	a5,255
    34e4:	0af50863          	beq	a0,a5,3594 <__mulsf3+0x124>
    34e8:	00341413          	slli	s0,s0,0x3
    34ec:	040007b7          	lui	a5,0x4000
    34f0:	00f46433          	or	s0,s0,a5
    34f4:	f8150513          	addi	a0,a0,-127
    34f8:	00000793          	li	a5,0
    34fc:	002a1713          	slli	a4,s4,0x2
    3500:	00f76733          	or	a4,a4,a5
    3504:	00a90933          	add	s2,s2,a0
    3508:	fff70713          	addi	a4,a4,-1
    350c:	00e00693          	li	a3,14
    3510:	0159c833          	xor	a6,s3,s5
    3514:	00190893          	addi	a7,s2,1
    3518:	08e6ee63          	bltu	a3,a4,35b4 <__mulsf3+0x144>
    351c:	000046b7          	lui	a3,0x4
    3520:	00271713          	slli	a4,a4,0x2
    3524:	08068693          	addi	a3,a3,128 # 4080 <__clzsi2+0x100>
    3528:	00d70733          	add	a4,a4,a3
    352c:	00072703          	lw	a4,0(a4)
    3530:	00070067          	jr	a4
    3534:	02048a63          	beqz	s1,3568 <__mulsf3+0xf8>
    3538:	00048513          	mv	a0,s1
    353c:	245000ef          	jal	ra,3f80 <__clzsi2>
    3540:	ffb50793          	addi	a5,a0,-5
    3544:	f8a00913          	li	s2,-118
    3548:	00f494b3          	sll	s1,s1,a5
    354c:	40a90933          	sub	s2,s2,a0
    3550:	f75ff06f          	j	34c4 <__mulsf3+0x54>
    3554:	0ff00913          	li	s2,255
    3558:	00200a13          	li	s4,2
    355c:	f60486e3          	beqz	s1,34c8 <__mulsf3+0x58>
    3560:	00300a13          	li	s4,3
    3564:	f65ff06f          	j	34c8 <__mulsf3+0x58>
    3568:	00000913          	li	s2,0
    356c:	00100a13          	li	s4,1
    3570:	f59ff06f          	j	34c8 <__mulsf3+0x58>
    3574:	02040a63          	beqz	s0,35a8 <__mulsf3+0x138>
    3578:	00040513          	mv	a0,s0
    357c:	205000ef          	jal	ra,3f80 <__clzsi2>
    3580:	ffb50793          	addi	a5,a0,-5
    3584:	00f41433          	sll	s0,s0,a5
    3588:	f8a00793          	li	a5,-118
    358c:	40a78533          	sub	a0,a5,a0
    3590:	f69ff06f          	j	34f8 <__mulsf3+0x88>
    3594:	0ff00513          	li	a0,255
    3598:	00200793          	li	a5,2
    359c:	f60400e3          	beqz	s0,34fc <__mulsf3+0x8c>
    35a0:	00300793          	li	a5,3
    35a4:	f59ff06f          	j	34fc <__mulsf3+0x8c>
    35a8:	00000513          	li	a0,0
    35ac:	00100793          	li	a5,1
    35b0:	f4dff06f          	j	34fc <__mulsf3+0x8c>
    35b4:	00010eb7          	lui	t4,0x10
    35b8:	fffe8e13          	addi	t3,t4,-1 # ffff <__heap_start+0xafff>
    35bc:	0104df93          	srli	t6,s1,0x10
    35c0:	01045793          	srli	a5,s0,0x10
    35c4:	01c4f4b3          	and	s1,s1,t3
    35c8:	01c47433          	and	s0,s0,t3
    35cc:	00048513          	mv	a0,s1
    35d0:	00040593          	mv	a1,s0
    35d4:	0d5000ef          	jal	ra,3ea8 <__mulsi3>
    35d8:	00050313          	mv	t1,a0
    35dc:	00078593          	mv	a1,a5
    35e0:	00048513          	mv	a0,s1
    35e4:	0c5000ef          	jal	ra,3ea8 <__mulsi3>
    35e8:	00050713          	mv	a4,a0
    35ec:	00040593          	mv	a1,s0
    35f0:	000f8513          	mv	a0,t6
    35f4:	0b5000ef          	jal	ra,3ea8 <__mulsi3>
    35f8:	00050f13          	mv	t5,a0
    35fc:	00078593          	mv	a1,a5
    3600:	000f8513          	mv	a0,t6
    3604:	0a5000ef          	jal	ra,3ea8 <__mulsi3>
    3608:	01035793          	srli	a5,t1,0x10
    360c:	01e70733          	add	a4,a4,t5
    3610:	00e787b3          	add	a5,a5,a4
    3614:	01e7f463          	bgeu	a5,t5,361c <__mulsf3+0x1ac>
    3618:	01d50533          	add	a0,a0,t4
    361c:	01c7f733          	and	a4,a5,t3
    3620:	01071713          	slli	a4,a4,0x10
    3624:	01c37333          	and	t1,t1,t3
    3628:	00670733          	add	a4,a4,t1
    362c:	00671413          	slli	s0,a4,0x6
    3630:	0107d793          	srli	a5,a5,0x10
    3634:	00803433          	snez	s0,s0
    3638:	01a75713          	srli	a4,a4,0x1a
    363c:	00a787b3          	add	a5,a5,a0
    3640:	00679793          	slli	a5,a5,0x6
    3644:	00e46733          	or	a4,s0,a4
    3648:	00e7e433          	or	s0,a5,a4
    364c:	00441793          	slli	a5,s0,0x4
    3650:	0807dc63          	bgez	a5,36e8 <__mulsf3+0x278>
    3654:	00145793          	srli	a5,s0,0x1
    3658:	00147413          	andi	s0,s0,1
    365c:	0087e433          	or	s0,a5,s0
    3660:	07f88713          	addi	a4,a7,127
    3664:	08e05663          	blez	a4,36f0 <__mulsf3+0x280>
    3668:	00747793          	andi	a5,s0,7
    366c:	00078a63          	beqz	a5,3680 <__mulsf3+0x210>
    3670:	00f47793          	andi	a5,s0,15
    3674:	00400693          	li	a3,4
    3678:	00d78463          	beq	a5,a3,3680 <__mulsf3+0x210>
    367c:	00440413          	addi	s0,s0,4 # 400004 <__heap_start+0x3fb004>
    3680:	00441793          	slli	a5,s0,0x4
    3684:	0007da63          	bgez	a5,3698 <__mulsf3+0x228>
    3688:	f80007b7          	lui	a5,0xf8000
    368c:	fff78793          	addi	a5,a5,-1 # f7ffffff <__heap_start+0xf7ffafff>
    3690:	00f47433          	and	s0,s0,a5
    3694:	08088713          	addi	a4,a7,128
    3698:	0fe00793          	li	a5,254
    369c:	00345413          	srli	s0,s0,0x3
    36a0:	0ae7d863          	bge	a5,a4,3750 <__mulsf3+0x2e0>
    36a4:	00000413          	li	s0,0
    36a8:	0ff00713          	li	a4,255
    36ac:	0a40006f          	j	3750 <__mulsf3+0x2e0>
    36b0:	00098813          	mv	a6,s3
    36b4:	00048413          	mv	s0,s1
    36b8:	000a0793          	mv	a5,s4
    36bc:	00200713          	li	a4,2
    36c0:	fee782e3          	beq	a5,a4,36a4 <__mulsf3+0x234>
    36c4:	00300713          	li	a4,3
    36c8:	06e78e63          	beq	a5,a4,3744 <__mulsf3+0x2d4>
    36cc:	00100713          	li	a4,1
    36d0:	f8e798e3          	bne	a5,a4,3660 <__mulsf3+0x1f0>
    36d4:	00000413          	li	s0,0
    36d8:	00000713          	li	a4,0
    36dc:	0740006f          	j	3750 <__mulsf3+0x2e0>
    36e0:	000a8813          	mv	a6,s5
    36e4:	fd9ff06f          	j	36bc <__mulsf3+0x24c>
    36e8:	00090893          	mv	a7,s2
    36ec:	f75ff06f          	j	3660 <__mulsf3+0x1f0>
    36f0:	00100793          	li	a5,1
    36f4:	40e787b3          	sub	a5,a5,a4
    36f8:	01b00713          	li	a4,27
    36fc:	fcf74ce3          	blt	a4,a5,36d4 <__mulsf3+0x264>
    3700:	09e88893          	addi	a7,a7,158
    3704:	00f457b3          	srl	a5,s0,a5
    3708:	01141433          	sll	s0,s0,a7
    370c:	00803433          	snez	s0,s0
    3710:	0087e433          	or	s0,a5,s0
    3714:	00747793          	andi	a5,s0,7
    3718:	00078a63          	beqz	a5,372c <__mulsf3+0x2bc>
    371c:	00f47793          	andi	a5,s0,15
    3720:	00400713          	li	a4,4
    3724:	00e78463          	beq	a5,a4,372c <__mulsf3+0x2bc>
    3728:	00440413          	addi	s0,s0,4
    372c:	00541793          	slli	a5,s0,0x5
    3730:	00345413          	srli	s0,s0,0x3
    3734:	fa07d2e3          	bgez	a5,36d8 <__mulsf3+0x268>
    3738:	00000413          	li	s0,0
    373c:	00100713          	li	a4,1
    3740:	0100006f          	j	3750 <__mulsf3+0x2e0>
    3744:	00400437          	lui	s0,0x400
    3748:	0ff00713          	li	a4,255
    374c:	00000813          	li	a6,0
    3750:	00941413          	slli	s0,s0,0x9
    3754:	0ff77713          	andi	a4,a4,255
    3758:	01771713          	slli	a4,a4,0x17
    375c:	00945413          	srli	s0,s0,0x9
    3760:	00e46433          	or	s0,s0,a4
    3764:	01f81513          	slli	a0,a6,0x1f
    3768:	00a46533          	or	a0,s0,a0
    376c:	01c12083          	lw	ra,28(sp)
    3770:	01812403          	lw	s0,24(sp)
    3774:	01412483          	lw	s1,20(sp)
    3778:	01012903          	lw	s2,16(sp)
    377c:	00c12983          	lw	s3,12(sp)
    3780:	00812a03          	lw	s4,8(sp)
    3784:	00412a83          	lw	s5,4(sp)
    3788:	02010113          	addi	sp,sp,32
    378c:	00008067          	ret

00003790 <__subsf3>:
    3790:	00800737          	lui	a4,0x800
    3794:	ff010113          	addi	sp,sp,-16
    3798:	fff70713          	addi	a4,a4,-1 # 7fffff <__heap_start+0x7fafff>
    379c:	01755693          	srli	a3,a0,0x17
    37a0:	0175d813          	srli	a6,a1,0x17
    37a4:	00a777b3          	and	a5,a4,a0
    37a8:	00912223          	sw	s1,4(sp)
    37ac:	00b77733          	and	a4,a4,a1
    37b0:	01212023          	sw	s2,0(sp)
    37b4:	0ff6f693          	andi	a3,a3,255
    37b8:	0ff87813          	andi	a6,a6,255
    37bc:	00112623          	sw	ra,12(sp)
    37c0:	00812423          	sw	s0,8(sp)
    37c4:	0ff00613          	li	a2,255
    37c8:	01f55493          	srli	s1,a0,0x1f
    37cc:	00068913          	mv	s2,a3
    37d0:	00379793          	slli	a5,a5,0x3
    37d4:	00080513          	mv	a0,a6
    37d8:	01f5d593          	srli	a1,a1,0x1f
    37dc:	00371713          	slli	a4,a4,0x3
    37e0:	00c81463          	bne	a6,a2,37e8 <__subsf3+0x58>
    37e4:	00071463          	bnez	a4,37ec <__subsf3+0x5c>
    37e8:	0015c593          	xori	a1,a1,1
    37ec:	41068633          	sub	a2,a3,a6
    37f0:	16959e63          	bne	a1,s1,396c <__subsf3+0x1dc>
    37f4:	08c05c63          	blez	a2,388c <__subsf3+0xfc>
    37f8:	04081c63          	bnez	a6,3850 <__subsf3+0xc0>
    37fc:	34070663          	beqz	a4,3b48 <__subsf3+0x3b8>
    3800:	fff60613          	addi	a2,a2,-1
    3804:	02061e63          	bnez	a2,3840 <__subsf3+0xb0>
    3808:	00e787b3          	add	a5,a5,a4
    380c:	00068513          	mv	a0,a3
    3810:	00579713          	slli	a4,a5,0x5
    3814:	10075c63          	bgez	a4,392c <__subsf3+0x19c>
    3818:	00150513          	addi	a0,a0,1
    381c:	0ff00713          	li	a4,255
    3820:	32e50e63          	beq	a0,a4,3b5c <__subsf3+0x3cc>
    3824:	7e000737          	lui	a4,0x7e000
    3828:	0017f693          	andi	a3,a5,1
    382c:	fff70713          	addi	a4,a4,-1 # 7dffffff <__heap_start+0x7dffafff>
    3830:	0017d793          	srli	a5,a5,0x1
    3834:	00e7f7b3          	and	a5,a5,a4
    3838:	00d7e7b3          	or	a5,a5,a3
    383c:	0f00006f          	j	392c <__subsf3+0x19c>
    3840:	0ff00593          	li	a1,255
    3844:	00b69e63          	bne	a3,a1,3860 <__subsf3+0xd0>
    3848:	0ff00513          	li	a0,255
    384c:	0e00006f          	j	392c <__subsf3+0x19c>
    3850:	0ff00593          	li	a1,255
    3854:	feb68ae3          	beq	a3,a1,3848 <__subsf3+0xb8>
    3858:	040005b7          	lui	a1,0x4000
    385c:	00b76733          	or	a4,a4,a1
    3860:	01b00593          	li	a1,27
    3864:	00c5d663          	bge	a1,a2,3870 <__subsf3+0xe0>
    3868:	00100713          	li	a4,1
    386c:	f9dff06f          	j	3808 <__subsf3+0x78>
    3870:	02000593          	li	a1,32
    3874:	00c75533          	srl	a0,a4,a2
    3878:	40c58633          	sub	a2,a1,a2
    387c:	00c71733          	sll	a4,a4,a2
    3880:	00e03733          	snez	a4,a4
    3884:	00e56733          	or	a4,a0,a4
    3888:	f81ff06f          	j	3808 <__subsf3+0x78>
    388c:	06060663          	beqz	a2,38f8 <__subsf3+0x168>
    3890:	40d80633          	sub	a2,a6,a3
    3894:	02069463          	bnez	a3,38bc <__subsf3+0x12c>
    3898:	2a078c63          	beqz	a5,3b50 <__subsf3+0x3c0>
    389c:	fff60613          	addi	a2,a2,-1
    38a0:	00061663          	bnez	a2,38ac <__subsf3+0x11c>
    38a4:	00e787b3          	add	a5,a5,a4
    38a8:	f69ff06f          	j	3810 <__subsf3+0x80>
    38ac:	0ff00693          	li	a3,255
    38b0:	00d81e63          	bne	a6,a3,38cc <__subsf3+0x13c>
    38b4:	00070793          	mv	a5,a4
    38b8:	f91ff06f          	j	3848 <__subsf3+0xb8>
    38bc:	0ff00693          	li	a3,255
    38c0:	fed80ae3          	beq	a6,a3,38b4 <__subsf3+0x124>
    38c4:	040006b7          	lui	a3,0x4000
    38c8:	00d7e7b3          	or	a5,a5,a3
    38cc:	01b00693          	li	a3,27
    38d0:	00c6d663          	bge	a3,a2,38dc <__subsf3+0x14c>
    38d4:	00100793          	li	a5,1
    38d8:	fcdff06f          	j	38a4 <__subsf3+0x114>
    38dc:	02000693          	li	a3,32
    38e0:	40c686b3          	sub	a3,a3,a2
    38e4:	00c7d5b3          	srl	a1,a5,a2
    38e8:	00d797b3          	sll	a5,a5,a3
    38ec:	00f037b3          	snez	a5,a5
    38f0:	00f5e7b3          	or	a5,a1,a5
    38f4:	fb1ff06f          	j	38a4 <__subsf3+0x114>
    38f8:	00168613          	addi	a2,a3,1 # 4000001 <__heap_start+0x3ffb001>
    38fc:	0fe67513          	andi	a0,a2,254
    3900:	04051a63          	bnez	a0,3954 <__subsf3+0x1c4>
    3904:	04069263          	bnez	a3,3948 <__subsf3+0x1b8>
    3908:	24078463          	beqz	a5,3b50 <__subsf3+0x3c0>
    390c:	02070063          	beqz	a4,392c <__subsf3+0x19c>
    3910:	00e787b3          	add	a5,a5,a4
    3914:	00579713          	slli	a4,a5,0x5
    3918:	00075a63          	bgez	a4,392c <__subsf3+0x19c>
    391c:	fc000737          	lui	a4,0xfc000
    3920:	fff70713          	addi	a4,a4,-1 # fbffffff <__heap_start+0xfbffafff>
    3924:	00e7f7b3          	and	a5,a5,a4
    3928:	00100513          	li	a0,1
    392c:	0077f713          	andi	a4,a5,7
    3930:	22070863          	beqz	a4,3b60 <__subsf3+0x3d0>
    3934:	00f7f713          	andi	a4,a5,15
    3938:	00400693          	li	a3,4
    393c:	22d70263          	beq	a4,a3,3b60 <__subsf3+0x3d0>
    3940:	00478793          	addi	a5,a5,4
    3944:	21c0006f          	j	3b60 <__subsf3+0x3d0>
    3948:	f60786e3          	beqz	a5,38b4 <__subsf3+0x124>
    394c:	ee070ee3          	beqz	a4,3848 <__subsf3+0xb8>
    3950:	1740006f          	j	3ac4 <__subsf3+0x334>
    3954:	0ff00693          	li	a3,255
    3958:	20d60063          	beq	a2,a3,3b58 <__subsf3+0x3c8>
    395c:	00e787b3          	add	a5,a5,a4
    3960:	0017d793          	srli	a5,a5,0x1
    3964:	00060513          	mv	a0,a2
    3968:	fc5ff06f          	j	392c <__subsf3+0x19c>
    396c:	08c05863          	blez	a2,39fc <__subsf3+0x26c>
    3970:	04081863          	bnez	a6,39c0 <__subsf3+0x230>
    3974:	00068513          	mv	a0,a3
    3978:	fa070ae3          	beqz	a4,392c <__subsf3+0x19c>
    397c:	fff60613          	addi	a2,a2,-1
    3980:	02061263          	bnez	a2,39a4 <__subsf3+0x214>
    3984:	40e787b3          	sub	a5,a5,a4
    3988:	00579713          	slli	a4,a5,0x5
    398c:	fa0750e3          	bgez	a4,392c <__subsf3+0x19c>
    3990:	04000437          	lui	s0,0x4000
    3994:	fff40413          	addi	s0,s0,-1 # 3ffffff <__heap_start+0x3ffafff>
    3998:	0087f433          	and	s0,a5,s0
    399c:	00050913          	mv	s2,a0
    39a0:	1480006f          	j	3ae8 <__subsf3+0x358>
    39a4:	0ff00593          	li	a1,255
    39a8:	0ff00513          	li	a0,255
    39ac:	f8b680e3          	beq	a3,a1,392c <__subsf3+0x19c>
    39b0:	01b00593          	li	a1,27
    39b4:	02c5d263          	bge	a1,a2,39d8 <__subsf3+0x248>
    39b8:	00100713          	li	a4,1
    39bc:	0340006f          	j	39f0 <__subsf3+0x260>
    39c0:	0ff00593          	li	a1,255
    39c4:	0ff00513          	li	a0,255
    39c8:	f6b682e3          	beq	a3,a1,392c <__subsf3+0x19c>
    39cc:	040005b7          	lui	a1,0x4000
    39d0:	00b76733          	or	a4,a4,a1
    39d4:	fddff06f          	j	39b0 <__subsf3+0x220>
    39d8:	02000593          	li	a1,32
    39dc:	00c75533          	srl	a0,a4,a2
    39e0:	40c58633          	sub	a2,a1,a2
    39e4:	00c71733          	sll	a4,a4,a2
    39e8:	00e03733          	snez	a4,a4
    39ec:	00e56733          	or	a4,a0,a4
    39f0:	40e787b3          	sub	a5,a5,a4
    39f4:	00068513          	mv	a0,a3
    39f8:	f91ff06f          	j	3988 <__subsf3+0x1f8>
    39fc:	06060a63          	beqz	a2,3a70 <__subsf3+0x2e0>
    3a00:	40d80633          	sub	a2,a6,a3
    3a04:	02069863          	bnez	a3,3a34 <__subsf3+0x2a4>
    3a08:	08078063          	beqz	a5,3a88 <__subsf3+0x2f8>
    3a0c:	fff60613          	addi	a2,a2,-1
    3a10:	00061863          	bnez	a2,3a20 <__subsf3+0x290>
    3a14:	40f707b3          	sub	a5,a4,a5
    3a18:	00058493          	mv	s1,a1
    3a1c:	f6dff06f          	j	3988 <__subsf3+0x1f8>
    3a20:	0ff00693          	li	a3,255
    3a24:	02d81063          	bne	a6,a3,3a44 <__subsf3+0x2b4>
    3a28:	00070793          	mv	a5,a4
    3a2c:	00058493          	mv	s1,a1
    3a30:	e19ff06f          	j	3848 <__subsf3+0xb8>
    3a34:	0ff00693          	li	a3,255
    3a38:	fed808e3          	beq	a6,a3,3a28 <__subsf3+0x298>
    3a3c:	040006b7          	lui	a3,0x4000
    3a40:	00d7e7b3          	or	a5,a5,a3
    3a44:	01b00693          	li	a3,27
    3a48:	00c6d663          	bge	a3,a2,3a54 <__subsf3+0x2c4>
    3a4c:	00100793          	li	a5,1
    3a50:	fc5ff06f          	j	3a14 <__subsf3+0x284>
    3a54:	02000693          	li	a3,32
    3a58:	40c686b3          	sub	a3,a3,a2
    3a5c:	00c7d833          	srl	a6,a5,a2
    3a60:	00d797b3          	sll	a5,a5,a3
    3a64:	00f037b3          	snez	a5,a5
    3a68:	00f867b3          	or	a5,a6,a5
    3a6c:	fa9ff06f          	j	3a14 <__subsf3+0x284>
    3a70:	00168513          	addi	a0,a3,1 # 4000001 <__heap_start+0x3ffb001>
    3a74:	0fe57513          	andi	a0,a0,254
    3a78:	04051e63          	bnez	a0,3ad4 <__subsf3+0x344>
    3a7c:	04069063          	bnez	a3,3abc <__subsf3+0x32c>
    3a80:	00079863          	bnez	a5,3a90 <__subsf3+0x300>
    3a84:	02070663          	beqz	a4,3ab0 <__subsf3+0x320>
    3a88:	00070793          	mv	a5,a4
    3a8c:	0180006f          	j	3aa4 <__subsf3+0x314>
    3a90:	e8070ee3          	beqz	a4,392c <__subsf3+0x19c>
    3a94:	40e786b3          	sub	a3,a5,a4
    3a98:	00569613          	slli	a2,a3,0x5
    3a9c:	00065863          	bgez	a2,3aac <__subsf3+0x31c>
    3aa0:	40f707b3          	sub	a5,a4,a5
    3aa4:	00058493          	mv	s1,a1
    3aa8:	e85ff06f          	j	392c <__subsf3+0x19c>
    3aac:	12069063          	bnez	a3,3bcc <__subsf3+0x43c>
    3ab0:	00000793          	li	a5,0
    3ab4:	00000493          	li	s1,0
    3ab8:	0a80006f          	j	3b60 <__subsf3+0x3d0>
    3abc:	e80798e3          	bnez	a5,394c <__subsf3+0x1bc>
    3ac0:	f60714e3          	bnez	a4,3a28 <__subsf3+0x298>
    3ac4:	00000493          	li	s1,0
    3ac8:	020007b7          	lui	a5,0x2000
    3acc:	0ff00513          	li	a0,255
    3ad0:	0900006f          	j	3b60 <__subsf3+0x3d0>
    3ad4:	40e78433          	sub	s0,a5,a4
    3ad8:	00541693          	slli	a3,s0,0x5
    3adc:	0406d463          	bgez	a3,3b24 <__subsf3+0x394>
    3ae0:	40f70433          	sub	s0,a4,a5
    3ae4:	00058493          	mv	s1,a1
    3ae8:	00040513          	mv	a0,s0
    3aec:	494000ef          	jal	ra,3f80 <__clzsi2>
    3af0:	ffb50513          	addi	a0,a0,-5
    3af4:	00a41433          	sll	s0,s0,a0
    3af8:	03254e63          	blt	a0,s2,3b34 <__subsf3+0x3a4>
    3afc:	41250533          	sub	a0,a0,s2
    3b00:	00150513          	addi	a0,a0,1
    3b04:	02000713          	li	a4,32
    3b08:	00a457b3          	srl	a5,s0,a0
    3b0c:	40a70533          	sub	a0,a4,a0
    3b10:	00a41433          	sll	s0,s0,a0
    3b14:	00803433          	snez	s0,s0
    3b18:	0087e7b3          	or	a5,a5,s0
    3b1c:	00000513          	li	a0,0
    3b20:	e0dff06f          	j	392c <__subsf3+0x19c>
    3b24:	fc0412e3          	bnez	s0,3ae8 <__subsf3+0x358>
    3b28:	00000793          	li	a5,0
    3b2c:	00000513          	li	a0,0
    3b30:	f85ff06f          	j	3ab4 <__subsf3+0x324>
    3b34:	fc0007b7          	lui	a5,0xfc000
    3b38:	fff78793          	addi	a5,a5,-1 # fbffffff <__heap_start+0xfbffafff>
    3b3c:	40a90533          	sub	a0,s2,a0
    3b40:	00f477b3          	and	a5,s0,a5
    3b44:	de9ff06f          	j	392c <__subsf3+0x19c>
    3b48:	00068513          	mv	a0,a3
    3b4c:	de1ff06f          	j	392c <__subsf3+0x19c>
    3b50:	00070793          	mv	a5,a4
    3b54:	dd9ff06f          	j	392c <__subsf3+0x19c>
    3b58:	0ff00513          	li	a0,255
    3b5c:	00000793          	li	a5,0
    3b60:	00579713          	slli	a4,a5,0x5
    3b64:	00075e63          	bgez	a4,3b80 <__subsf3+0x3f0>
    3b68:	00150513          	addi	a0,a0,1
    3b6c:	0ff00713          	li	a4,255
    3b70:	06e50263          	beq	a0,a4,3bd4 <__subsf3+0x444>
    3b74:	fc000737          	lui	a4,0xfc000
    3b78:	fff70713          	addi	a4,a4,-1 # fbffffff <__heap_start+0xfbffafff>
    3b7c:	00e7f7b3          	and	a5,a5,a4
    3b80:	0ff00713          	li	a4,255
    3b84:	0037d793          	srli	a5,a5,0x3
    3b88:	00e51863          	bne	a0,a4,3b98 <__subsf3+0x408>
    3b8c:	00078663          	beqz	a5,3b98 <__subsf3+0x408>
    3b90:	004007b7          	lui	a5,0x400
    3b94:	00000493          	li	s1,0
    3b98:	0ff57513          	andi	a0,a0,255
    3b9c:	00c12083          	lw	ra,12(sp)
    3ba0:	00812403          	lw	s0,8(sp)
    3ba4:	00979793          	slli	a5,a5,0x9
    3ba8:	01751713          	slli	a4,a0,0x17
    3bac:	0097d513          	srli	a0,a5,0x9
    3bb0:	01f49493          	slli	s1,s1,0x1f
    3bb4:	00e56533          	or	a0,a0,a4
    3bb8:	00956533          	or	a0,a0,s1
    3bbc:	00012903          	lw	s2,0(sp)
    3bc0:	00412483          	lw	s1,4(sp)
    3bc4:	01010113          	addi	sp,sp,16
    3bc8:	00008067          	ret
    3bcc:	00068793          	mv	a5,a3
    3bd0:	d5dff06f          	j	392c <__subsf3+0x19c>
    3bd4:	00000793          	li	a5,0
    3bd8:	fa9ff06f          	j	3b80 <__subsf3+0x3f0>

00003bdc <__fixsfsi>:
    3bdc:	00800637          	lui	a2,0x800
    3be0:	01755713          	srli	a4,a0,0x17
    3be4:	fff60793          	addi	a5,a2,-1 # 7fffff <__heap_start+0x7fafff>
    3be8:	0ff77713          	andi	a4,a4,255
    3bec:	07e00593          	li	a1,126
    3bf0:	00a7f7b3          	and	a5,a5,a0
    3bf4:	01f55693          	srli	a3,a0,0x1f
    3bf8:	04e5f663          	bgeu	a1,a4,3c44 <__fixsfsi+0x68>
    3bfc:	09d00593          	li	a1,157
    3c00:	00e5fa63          	bgeu	a1,a4,3c14 <__fixsfsi+0x38>
    3c04:	80000537          	lui	a0,0x80000
    3c08:	fff54513          	not	a0,a0
    3c0c:	00a68533          	add	a0,a3,a0
    3c10:	00008067          	ret
    3c14:	00c7e533          	or	a0,a5,a2
    3c18:	09500793          	li	a5,149
    3c1c:	00e7dc63          	bge	a5,a4,3c34 <__fixsfsi+0x58>
    3c20:	f6a70713          	addi	a4,a4,-150
    3c24:	00e51533          	sll	a0,a0,a4
    3c28:	02068063          	beqz	a3,3c48 <__fixsfsi+0x6c>
    3c2c:	40a00533          	neg	a0,a0
    3c30:	00008067          	ret
    3c34:	09600793          	li	a5,150
    3c38:	40e78733          	sub	a4,a5,a4
    3c3c:	00e55533          	srl	a0,a0,a4
    3c40:	fe9ff06f          	j	3c28 <__fixsfsi+0x4c>
    3c44:	00000513          	li	a0,0
    3c48:	00008067          	ret

00003c4c <__extendsfdf2>:
    3c4c:	01755793          	srli	a5,a0,0x17
    3c50:	ff010113          	addi	sp,sp,-16
    3c54:	0ff7f793          	andi	a5,a5,255
    3c58:	00812423          	sw	s0,8(sp)
    3c5c:	00912223          	sw	s1,4(sp)
    3c60:	00951413          	slli	s0,a0,0x9
    3c64:	01f55493          	srli	s1,a0,0x1f
    3c68:	00178513          	addi	a0,a5,1 # 400001 <__heap_start+0x3fb001>
    3c6c:	00112623          	sw	ra,12(sp)
    3c70:	0fe57513          	andi	a0,a0,254
    3c74:	00945413          	srli	s0,s0,0x9
    3c78:	04050463          	beqz	a0,3cc0 <__extendsfdf2+0x74>
    3c7c:	38078513          	addi	a0,a5,896
    3c80:	00345793          	srli	a5,s0,0x3
    3c84:	01d41413          	slli	s0,s0,0x1d
    3c88:	00c79793          	slli	a5,a5,0xc
    3c8c:	7ff57513          	andi	a0,a0,2047
    3c90:	01451513          	slli	a0,a0,0x14
    3c94:	00c7d793          	srli	a5,a5,0xc
    3c98:	00a7e7b3          	or	a5,a5,a0
    3c9c:	00c12083          	lw	ra,12(sp)
    3ca0:	00040513          	mv	a0,s0
    3ca4:	00812403          	lw	s0,8(sp)
    3ca8:	01f49493          	slli	s1,s1,0x1f
    3cac:	0097e733          	or	a4,a5,s1
    3cb0:	00070593          	mv	a1,a4
    3cb4:	00412483          	lw	s1,4(sp)
    3cb8:	01010113          	addi	sp,sp,16
    3cbc:	00008067          	ret
    3cc0:	04079463          	bnez	a5,3d08 <__extendsfdf2+0xbc>
    3cc4:	fc0402e3          	beqz	s0,3c88 <__extendsfdf2+0x3c>
    3cc8:	00040513          	mv	a0,s0
    3ccc:	2b4000ef          	jal	ra,3f80 <__clzsi2>
    3cd0:	00a00793          	li	a5,10
    3cd4:	02a7c263          	blt	a5,a0,3cf8 <__extendsfdf2+0xac>
    3cd8:	00b00793          	li	a5,11
    3cdc:	40a787b3          	sub	a5,a5,a0
    3ce0:	01550713          	addi	a4,a0,21 # 80000015 <__heap_start+0x7fffb015>
    3ce4:	00f457b3          	srl	a5,s0,a5
    3ce8:	00e41433          	sll	s0,s0,a4
    3cec:	38900713          	li	a4,905
    3cf0:	40a70533          	sub	a0,a4,a0
    3cf4:	f95ff06f          	j	3c88 <__extendsfdf2+0x3c>
    3cf8:	ff550793          	addi	a5,a0,-11
    3cfc:	00f417b3          	sll	a5,s0,a5
    3d00:	00000413          	li	s0,0
    3d04:	fe9ff06f          	j	3cec <__extendsfdf2+0xa0>
    3d08:	00000793          	li	a5,0
    3d0c:	00040a63          	beqz	s0,3d20 <__extendsfdf2+0xd4>
    3d10:	00345793          	srli	a5,s0,0x3
    3d14:	00080737          	lui	a4,0x80
    3d18:	01d41413          	slli	s0,s0,0x1d
    3d1c:	00e7e7b3          	or	a5,a5,a4
    3d20:	7ff00513          	li	a0,2047
    3d24:	f65ff06f          	j	3c88 <__extendsfdf2+0x3c>

00003d28 <__truncdfsf2>:
    3d28:	00c59613          	slli	a2,a1,0xc
    3d2c:	00c65613          	srli	a2,a2,0xc
    3d30:	0145d813          	srli	a6,a1,0x14
    3d34:	00361793          	slli	a5,a2,0x3
    3d38:	7ff87813          	andi	a6,a6,2047
    3d3c:	01d55613          	srli	a2,a0,0x1d
    3d40:	00f66633          	or	a2,a2,a5
    3d44:	00180793          	addi	a5,a6,1
    3d48:	7fe7f793          	andi	a5,a5,2046
    3d4c:	01f5d593          	srli	a1,a1,0x1f
    3d50:	00351713          	slli	a4,a0,0x3
    3d54:	0a078663          	beqz	a5,3e00 <__truncdfsf2+0xd8>
    3d58:	c8080693          	addi	a3,a6,-896
    3d5c:	0fe00793          	li	a5,254
    3d60:	0cd7c263          	blt	a5,a3,3e24 <__truncdfsf2+0xfc>
    3d64:	08d04063          	bgtz	a3,3de4 <__truncdfsf2+0xbc>
    3d68:	fe900793          	li	a5,-23
    3d6c:	10f6cc63          	blt	a3,a5,3e84 <__truncdfsf2+0x15c>
    3d70:	008007b7          	lui	a5,0x800
    3d74:	01e00513          	li	a0,30
    3d78:	00f66633          	or	a2,a2,a5
    3d7c:	40d50533          	sub	a0,a0,a3
    3d80:	01f00793          	li	a5,31
    3d84:	02a7c863          	blt	a5,a0,3db4 <__truncdfsf2+0x8c>
    3d88:	c8280813          	addi	a6,a6,-894
    3d8c:	010717b3          	sll	a5,a4,a6
    3d90:	00f037b3          	snez	a5,a5
    3d94:	01061633          	sll	a2,a2,a6
    3d98:	00a75533          	srl	a0,a4,a0
    3d9c:	00c7e7b3          	or	a5,a5,a2
    3da0:	00f567b3          	or	a5,a0,a5
    3da4:	00000693          	li	a3,0
    3da8:	0077f713          	andi	a4,a5,7
    3dac:	08070063          	beqz	a4,3e2c <__truncdfsf2+0x104>
    3db0:	0dc0006f          	j	3e8c <__truncdfsf2+0x164>
    3db4:	ffe00793          	li	a5,-2
    3db8:	40d786b3          	sub	a3,a5,a3
    3dbc:	02000793          	li	a5,32
    3dc0:	00d656b3          	srl	a3,a2,a3
    3dc4:	00000893          	li	a7,0
    3dc8:	00f50663          	beq	a0,a5,3dd4 <__truncdfsf2+0xac>
    3dcc:	ca280813          	addi	a6,a6,-862
    3dd0:	010618b3          	sll	a7,a2,a6
    3dd4:	00e8e7b3          	or	a5,a7,a4
    3dd8:	00f037b3          	snez	a5,a5
    3ddc:	00f6e7b3          	or	a5,a3,a5
    3de0:	fc5ff06f          	j	3da4 <__truncdfsf2+0x7c>
    3de4:	00651513          	slli	a0,a0,0x6
    3de8:	00a03533          	snez	a0,a0
    3dec:	00361613          	slli	a2,a2,0x3
    3df0:	01d75793          	srli	a5,a4,0x1d
    3df4:	00c56633          	or	a2,a0,a2
    3df8:	00f667b3          	or	a5,a2,a5
    3dfc:	fadff06f          	j	3da8 <__truncdfsf2+0x80>
    3e00:	00e667b3          	or	a5,a2,a4
    3e04:	00081663          	bnez	a6,3e10 <__truncdfsf2+0xe8>
    3e08:	00f037b3          	snez	a5,a5
    3e0c:	f99ff06f          	j	3da4 <__truncdfsf2+0x7c>
    3e10:	0ff00693          	li	a3,255
    3e14:	00078c63          	beqz	a5,3e2c <__truncdfsf2+0x104>
    3e18:	00361613          	slli	a2,a2,0x3
    3e1c:	020007b7          	lui	a5,0x2000
    3e20:	fd9ff06f          	j	3df8 <__truncdfsf2+0xd0>
    3e24:	00000793          	li	a5,0
    3e28:	0ff00693          	li	a3,255
    3e2c:	00579713          	slli	a4,a5,0x5
    3e30:	00075e63          	bgez	a4,3e4c <__truncdfsf2+0x124>
    3e34:	00168693          	addi	a3,a3,1
    3e38:	0ff00713          	li	a4,255
    3e3c:	06e68263          	beq	a3,a4,3ea0 <__truncdfsf2+0x178>
    3e40:	fc000737          	lui	a4,0xfc000
    3e44:	fff70713          	addi	a4,a4,-1 # fbffffff <__heap_start+0xfbffafff>
    3e48:	00e7f7b3          	and	a5,a5,a4
    3e4c:	0ff00713          	li	a4,255
    3e50:	0037d793          	srli	a5,a5,0x3
    3e54:	00e69863          	bne	a3,a4,3e64 <__truncdfsf2+0x13c>
    3e58:	00078663          	beqz	a5,3e64 <__truncdfsf2+0x13c>
    3e5c:	004007b7          	lui	a5,0x400
    3e60:	00000593          	li	a1,0
    3e64:	00979793          	slli	a5,a5,0x9
    3e68:	0ff6f693          	andi	a3,a3,255
    3e6c:	01769693          	slli	a3,a3,0x17
    3e70:	0097d793          	srli	a5,a5,0x9
    3e74:	01f59593          	slli	a1,a1,0x1f
    3e78:	00d7e7b3          	or	a5,a5,a3
    3e7c:	00b7e533          	or	a0,a5,a1
    3e80:	00008067          	ret
    3e84:	00100793          	li	a5,1
    3e88:	00000693          	li	a3,0
    3e8c:	00f7f713          	andi	a4,a5,15
    3e90:	00400613          	li	a2,4
    3e94:	f8c70ce3          	beq	a4,a2,3e2c <__truncdfsf2+0x104>
    3e98:	00478793          	addi	a5,a5,4 # 400004 <__heap_start+0x3fb004>
    3e9c:	f91ff06f          	j	3e2c <__truncdfsf2+0x104>
    3ea0:	00000793          	li	a5,0
    3ea4:	fa9ff06f          	j	3e4c <__truncdfsf2+0x124>

00003ea8 <__mulsi3>:
    3ea8:	00050613          	mv	a2,a0
    3eac:	00000513          	li	a0,0
    3eb0:	0015f693          	andi	a3,a1,1
    3eb4:	00068463          	beqz	a3,3ebc <__mulsi3+0x14>
    3eb8:	00c50533          	add	a0,a0,a2
    3ebc:	0015d593          	srli	a1,a1,0x1
    3ec0:	00161613          	slli	a2,a2,0x1
    3ec4:	fe0596e3          	bnez	a1,3eb0 <__mulsi3+0x8>
    3ec8:	00008067          	ret

00003ecc <__divsi3>:
    3ecc:	06054063          	bltz	a0,3f2c <__umodsi3+0x10>
    3ed0:	0605c663          	bltz	a1,3f3c <__umodsi3+0x20>

00003ed4 <__udivsi3>:
    3ed4:	00058613          	mv	a2,a1
    3ed8:	00050593          	mv	a1,a0
    3edc:	fff00513          	li	a0,-1
    3ee0:	02060c63          	beqz	a2,3f18 <__udivsi3+0x44>
    3ee4:	00100693          	li	a3,1
    3ee8:	00b67a63          	bgeu	a2,a1,3efc <__udivsi3+0x28>
    3eec:	00c05863          	blez	a2,3efc <__udivsi3+0x28>
    3ef0:	00161613          	slli	a2,a2,0x1
    3ef4:	00169693          	slli	a3,a3,0x1
    3ef8:	feb66ae3          	bltu	a2,a1,3eec <__udivsi3+0x18>
    3efc:	00000513          	li	a0,0
    3f00:	00c5e663          	bltu	a1,a2,3f0c <__udivsi3+0x38>
    3f04:	40c585b3          	sub	a1,a1,a2
    3f08:	00d56533          	or	a0,a0,a3
    3f0c:	0016d693          	srli	a3,a3,0x1
    3f10:	00165613          	srli	a2,a2,0x1
    3f14:	fe0696e3          	bnez	a3,3f00 <__udivsi3+0x2c>
    3f18:	00008067          	ret

00003f1c <__umodsi3>:
    3f1c:	00008293          	mv	t0,ra
    3f20:	fb5ff0ef          	jal	ra,3ed4 <__udivsi3>
    3f24:	00058513          	mv	a0,a1
    3f28:	00028067          	jr	t0
    3f2c:	40a00533          	neg	a0,a0
    3f30:	0005d863          	bgez	a1,3f40 <__umodsi3+0x24>
    3f34:	40b005b3          	neg	a1,a1
    3f38:	f9dff06f          	j	3ed4 <__udivsi3>
    3f3c:	40b005b3          	neg	a1,a1
    3f40:	00008293          	mv	t0,ra
    3f44:	f91ff0ef          	jal	ra,3ed4 <__udivsi3>
    3f48:	40a00533          	neg	a0,a0
    3f4c:	00028067          	jr	t0

00003f50 <__modsi3>:
    3f50:	00008293          	mv	t0,ra
    3f54:	0005ca63          	bltz	a1,3f68 <__modsi3+0x18>
    3f58:	00054c63          	bltz	a0,3f70 <__modsi3+0x20>
    3f5c:	f79ff0ef          	jal	ra,3ed4 <__udivsi3>
    3f60:	00058513          	mv	a0,a1
    3f64:	00028067          	jr	t0
    3f68:	40b005b3          	neg	a1,a1
    3f6c:	fe0558e3          	bgez	a0,3f5c <__modsi3+0xc>
    3f70:	40a00533          	neg	a0,a0
    3f74:	f61ff0ef          	jal	ra,3ed4 <__udivsi3>
    3f78:	40b00533          	neg	a0,a1
    3f7c:	00028067          	jr	t0

00003f80 <__clzsi2>:
    3f80:	000107b7          	lui	a5,0x10
    3f84:	02f57a63          	bgeu	a0,a5,3fb8 <__clzsi2+0x38>
    3f88:	0ff00793          	li	a5,255
    3f8c:	00a7b7b3          	sltu	a5,a5,a0
    3f90:	00379793          	slli	a5,a5,0x3
    3f94:	02000693          	li	a3,32
    3f98:	00004737          	lui	a4,0x4
    3f9c:	40f686b3          	sub	a3,a3,a5
    3fa0:	0bc70713          	addi	a4,a4,188 # 40bc <__clz_tab>
    3fa4:	00f557b3          	srl	a5,a0,a5
    3fa8:	00f707b3          	add	a5,a4,a5
    3fac:	0007c503          	lbu	a0,0(a5) # 10000 <__heap_start+0xb000>
    3fb0:	40a68533          	sub	a0,a3,a0
    3fb4:	00008067          	ret
    3fb8:	01000737          	lui	a4,0x1000
    3fbc:	01000793          	li	a5,16
    3fc0:	fce56ae3          	bltu	a0,a4,3f94 <__clzsi2+0x14>
    3fc4:	01800793          	li	a5,24
    3fc8:	fcdff06f          	j	3f94 <__clzsi2+0x14>

Disassembly of section .srodata:

000041e8 <Mod>:
    41e8:	00fd                	addi	ra,ra,31
	...

Disassembly of section .srodata.cst4:

000041ec <.srodata.cst4>:
    41ec:	0000                	unimp
    41ee:	4010                	lw	a2,0(s0)
    41f0:	0000                	unimp
    41f2:	3f80                	fld	fs0,56(a5)
    41f4:	6666                	flw	fa2,88(sp)
    41f6:	3de6                	fld	fs11,120(sp)
    41f8:	3a83126f          	jal	tp,355a0 <__heap_start+0x305a0>
    41fc:	0000                	unimp
    41fe:	3f00                	fld	fs0,56(a4)
    4200:	0000                	unimp
    4202:	bfc0                	fsd	fs0,184(a5)
    4204:	0000                	unimp
    4206:	3fc0                	fld	fs0,184(a5)
    4208:	d70a                	sw	sp,172(sp)
    420a:	b7173c23          	0xb7173c23
    420e:	38d1                	jal	3ae2 <__subsf3+0x352>
    4210:	0000                	unimp
    4212:	40a0                	lw	s0,64(s1)
    4214:	cccd                	beqz	s1,42ce <__bss_end+0x82>
    4216:	3ccc                	fld	fa1,184(s1)
    4218:	cccd                	beqz	s1,42d2 <__bss_end+0x86>
    421a:	3d4c                	fld	fa1,184(a0)

Disassembly of section .srodata.cst8:

00004220 <.srodata.cst8>:
    4220:	0000                	unimp
    4222:	0000                	unimp
    4224:	0000                	unimp
    4226:	3fe0                	fld	fs0,248(a5)
