
./test/test.om:     file format elf32-littleriscv


Disassembly of section .rom:

00000000 <.rom>:
   0:	00020137          	lui	sp,0x20
   4:	040010ef          	jal	ra,1044 <main>
   8:	0ff00513          	li	a0,255
   c:	000306b7          	lui	a3,0x30
  10:	00a68223          	sb	a0,4(a3) # 30004 <__heap_start+0x2c004>
  14:	ff9ff06f          	j	c <printInt-0xff4>

Disassembly of section .text:

00001000 <printInt>:
    1000:	00004737          	lui	a4,0x4
    1004:	e8c72783          	lw	a5,-372(a4) # 3e8c <__bss_end>
    1008:	00f54533          	xor	a0,a0,a5
    100c:	0ad50513          	addi	a0,a0,173
    1010:	e8a72623          	sw	a0,-372(a4)
    1014:	00008067          	ret

00001018 <printStr>:
    1018:	00054783          	lbu	a5,0(a0)
    101c:	02078263          	beqz	a5,1040 <printStr+0x28>
    1020:	00004737          	lui	a4,0x4
    1024:	e8c72683          	lw	a3,-372(a4) # 3e8c <__bss_end>
    1028:	00d7c7b3          	xor	a5,a5,a3
    102c:	20978793          	addi	a5,a5,521
    1030:	e8f72623          	sw	a5,-372(a4)
    1034:	00150513          	addi	a0,a0,1
    1038:	00054783          	lbu	a5,0(a0)
    103c:	fe0794e3          	bnez	a5,1024 <printStr+0xc>
    1040:	00008067          	ret

00001044 <main>:
    1044:	fd010113          	addi	sp,sp,-48 # 1ffd0 <__heap_start+0x1bfd0>
    1048:	02112623          	sw	ra,44(sp)
    104c:	02812423          	sw	s0,40(sp)
    1050:	02912223          	sw	s1,36(sp)
    1054:	03212023          	sw	s2,32(sp)
    1058:	01312e23          	sw	s3,28(sp)
    105c:	01412c23          	sw	s4,24(sp)
    1060:	01512a23          	sw	s5,20(sp)
    1064:	01612823          	sw	s6,16(sp)
    1068:	01712623          	sw	s7,12(sp)
    106c:	01812423          	sw	s8,8(sp)
    1070:	01912223          	sw	s9,4(sp)
    1074:	000017b7          	lui	a5,0x1
    1078:	2c878793          	addi	a5,a5,712 # 12c8 <__bss_start>
    107c:	00003737          	lui	a4,0x3
    1080:	bc070713          	addi	a4,a4,-1088 # 2bc0 <__bss_start+0x18f8>
    1084:	00e78733          	add	a4,a5,a4
    1088:	7d000693          	li	a3,2000
    108c:	00d7a023          	sw	a3,0(a5)
    1090:	00478793          	addi	a5,a5,4
    1094:	fee79ce3          	bne	a5,a4,108c <main+0x48>
    1098:	00004ab7          	lui	s5,0x4
    109c:	e84a8a93          	addi	s5,s5,-380 # 3e84 <__bss_start+0x2bbc>
    10a0:	00001a37          	lui	s4,0x1
    10a4:	aefa0b13          	addi	s6,s4,-1297 # aef <printInt-0x511>
    10a8:	5dfa0a13          	addi	s4,s4,1503
    10ac:	00000c13          	li	s8,0
    10b0:	00002bb7          	lui	s7,0x2
    10b4:	710b8b93          	addi	s7,s7,1808 # 2710 <__bss_start+0x1448>
    10b8:	fff00c93          	li	s9,-1
    10bc:	004aa783          	lw	a5,4(s5)
    10c0:	00279413          	slli	s0,a5,0x2
    10c4:	00f40433          	add	s0,s0,a5
    10c8:	00341413          	slli	s0,s0,0x3
    10cc:	40f40433          	sub	s0,s0,a5
    10d0:	00441413          	slli	s0,s0,0x4
    10d4:	00f40433          	add	s0,s0,a5
    10d8:	00441413          	slli	s0,s0,0x4
    10dc:	000a0593          	mv	a1,s4
    10e0:	00040513          	mv	a0,s0
    10e4:	1ac000ef          	jal	ra,1290 <__modsi3>
    10e8:	00aaa223          	sw	a0,4(s5)
    10ec:	000a0593          	mv	a1,s4
    10f0:	00040513          	mv	a0,s0
    10f4:	118000ef          	jal	ra,120c <__divsi3>
    10f8:	00050413          	mv	s0,a0
    10fc:	000b0993          	mv	s3,s6
    1100:	ffea0913          	addi	s2,s4,-2
    1104:	000a8493          	mv	s1,s5
    1108:	00098593          	mv	a1,s3
    110c:	00040513          	mv	a0,s0
    1110:	0d8000ef          	jal	ra,11e8 <__mulsi3>
    1114:	0004a783          	lw	a5,0(s1)
    1118:	00279413          	slli	s0,a5,0x2
    111c:	00f40433          	add	s0,s0,a5
    1120:	00341413          	slli	s0,s0,0x3
    1124:	40f40433          	sub	s0,s0,a5
    1128:	00441413          	slli	s0,s0,0x4
    112c:	00f40433          	add	s0,s0,a5
    1130:	00441413          	slli	s0,s0,0x4
    1134:	00a40433          	add	s0,s0,a0
    1138:	00090593          	mv	a1,s2
    113c:	00040513          	mv	a0,s0
    1140:	150000ef          	jal	ra,1290 <__modsi3>
    1144:	00a4a023          	sw	a0,0(s1)
    1148:	00090593          	mv	a1,s2
    114c:	00040513          	mv	a0,s0
    1150:	0bc000ef          	jal	ra,120c <__divsi3>
    1154:	00050413          	mv	s0,a0
    1158:	fff98993          	addi	s3,s3,-1
    115c:	ffc48493          	addi	s1,s1,-4
    1160:	ffe90913          	addi	s2,s2,-2
    1164:	fa0992e3          	bnez	s3,1108 <main+0xc4>
    1168:	000b8593          	mv	a1,s7
    116c:	0a0000ef          	jal	ra,120c <__divsi3>
    1170:	01850533          	add	a0,a0,s8
    1174:	e8dff0ef          	jal	ra,1000 <printInt>
    1178:	000b8593          	mv	a1,s7
    117c:	00040513          	mv	a0,s0
    1180:	110000ef          	jal	ra,1290 <__modsi3>
    1184:	00050c13          	mv	s8,a0
    1188:	fe4a0a13          	addi	s4,s4,-28
    118c:	ff2b0b13          	addi	s6,s6,-14
    1190:	fc8a8a93          	addi	s5,s5,-56
    1194:	f39a14e3          	bne	s4,s9,10bc <main+0x78>
    1198:	00001537          	lui	a0,0x1
    119c:	2c050513          	addi	a0,a0,704 # 12c0 <__modsi3+0x30>
    11a0:	e79ff0ef          	jal	ra,1018 <printStr>
    11a4:	0fd00593          	li	a1,253
    11a8:	000047b7          	lui	a5,0x4
    11ac:	e8c7a503          	lw	a0,-372(a5) # 3e8c <__bss_end>
    11b0:	0e0000ef          	jal	ra,1290 <__modsi3>
    11b4:	02c12083          	lw	ra,44(sp)
    11b8:	02812403          	lw	s0,40(sp)
    11bc:	02412483          	lw	s1,36(sp)
    11c0:	02012903          	lw	s2,32(sp)
    11c4:	01c12983          	lw	s3,28(sp)
    11c8:	01812a03          	lw	s4,24(sp)
    11cc:	01412a83          	lw	s5,20(sp)
    11d0:	01012b03          	lw	s6,16(sp)
    11d4:	00c12b83          	lw	s7,12(sp)
    11d8:	00812c03          	lw	s8,8(sp)
    11dc:	00412c83          	lw	s9,4(sp)
    11e0:	03010113          	addi	sp,sp,48
    11e4:	00008067          	ret

000011e8 <__mulsi3>:
    11e8:	00050613          	mv	a2,a0
    11ec:	00000513          	li	a0,0
    11f0:	0015f693          	andi	a3,a1,1
    11f4:	00068463          	beqz	a3,11fc <__mulsi3+0x14>
    11f8:	00c50533          	add	a0,a0,a2
    11fc:	0015d593          	srli	a1,a1,0x1
    1200:	00161613          	slli	a2,a2,0x1
    1204:	fe0596e3          	bnez	a1,11f0 <__mulsi3+0x8>
    1208:	00008067          	ret

0000120c <__divsi3>:
    120c:	06054063          	bltz	a0,126c <__umodsi3+0x10>
    1210:	0605c663          	bltz	a1,127c <__umodsi3+0x20>

00001214 <__udivsi3>:
    1214:	00058613          	mv	a2,a1
    1218:	00050593          	mv	a1,a0
    121c:	fff00513          	li	a0,-1
    1220:	02060c63          	beqz	a2,1258 <__udivsi3+0x44>
    1224:	00100693          	li	a3,1
    1228:	00b67a63          	bgeu	a2,a1,123c <__udivsi3+0x28>
    122c:	00c05863          	blez	a2,123c <__udivsi3+0x28>
    1230:	00161613          	slli	a2,a2,0x1
    1234:	00169693          	slli	a3,a3,0x1
    1238:	feb66ae3          	bltu	a2,a1,122c <__udivsi3+0x18>
    123c:	00000513          	li	a0,0
    1240:	00c5e663          	bltu	a1,a2,124c <__udivsi3+0x38>
    1244:	40c585b3          	sub	a1,a1,a2
    1248:	00d56533          	or	a0,a0,a3
    124c:	0016d693          	srli	a3,a3,0x1
    1250:	00165613          	srli	a2,a2,0x1
    1254:	fe0696e3          	bnez	a3,1240 <__udivsi3+0x2c>
    1258:	00008067          	ret

0000125c <__umodsi3>:
    125c:	00008293          	mv	t0,ra
    1260:	fb5ff0ef          	jal	ra,1214 <__udivsi3>
    1264:	00058513          	mv	a0,a1
    1268:	00028067          	jr	t0
    126c:	40a00533          	neg	a0,a0
    1270:	0005d863          	bgez	a1,1280 <__umodsi3+0x24>
    1274:	40b005b3          	neg	a1,a1
    1278:	f9dff06f          	j	1214 <__udivsi3>
    127c:	40b005b3          	neg	a1,a1
    1280:	00008293          	mv	t0,ra
    1284:	f91ff0ef          	jal	ra,1214 <__udivsi3>
    1288:	40a00533          	neg	a0,a0
    128c:	00028067          	jr	t0

00001290 <__modsi3>:
    1290:	00008293          	mv	t0,ra
    1294:	0005ca63          	bltz	a1,12a8 <__modsi3+0x18>
    1298:	00054c63          	bltz	a0,12b0 <__modsi3+0x20>
    129c:	f79ff0ef          	jal	ra,1214 <__udivsi3>
    12a0:	00058513          	mv	a0,a1
    12a4:	00028067          	jr	t0
    12a8:	40b005b3          	neg	a1,a1
    12ac:	fe0558e3          	bgez	a0,129c <__modsi3+0xc>
    12b0:	40a00533          	neg	a0,a0
    12b4:	f61ff0ef          	jal	ra,1214 <__udivsi3>
    12b8:	40b00533          	neg	a0,a1
    12bc:	00028067          	jr	t0

Disassembly of section .srodata:

000012c4 <Mod>:
    12c4:	00fd                	addi	ra,ra,31
	...
