
./test/test.om:     file format elf32-littleriscv


Disassembly of section .rom:

00000000 <.rom>:
   0:	00020137          	lui	sp,0x20
   4:	040010ef          	jal	ra,1044 <main>
   8:	0ff00513          	li	a0,255
   c:	000306b7          	lui	a3,0x30
  10:	00a68223          	sb	a0,4(a3) # 30004 <__heap_start+0x2e004>
  14:	ff9ff06f          	j	c <printInt-0xff4>

Disassembly of section .text:

00001000 <printInt>:
    1000:	00001737          	lui	a4,0x1
    1004:	35c72783          	lw	a5,860(a4) # 135c <judgeResult>
    1008:	00f54533          	xor	a0,a0,a5
    100c:	0ad50513          	addi	a0,a0,173
    1010:	34a72e23          	sw	a0,860(a4)
    1014:	00008067          	ret

00001018 <printStr>:
    1018:	00054783          	lbu	a5,0(a0)
    101c:	02078263          	beqz	a5,1040 <printStr+0x28>
    1020:	00001737          	lui	a4,0x1
    1024:	35c72683          	lw	a3,860(a4) # 135c <judgeResult>
    1028:	00d7c7b3          	xor	a5,a5,a3
    102c:	20978793          	addi	a5,a5,521
    1030:	34f72e23          	sw	a5,860(a4)
    1034:	00150513          	addi	a0,a0,1
    1038:	00054783          	lbu	a5,0(a0)
    103c:	fe0794e3          	bnez	a5,1024 <printStr+0xc>
    1040:	00008067          	ret

00001044 <main>:
    1044:	f4010113          	addi	sp,sp,-192 # 1ff40 <__heap_start+0x1df40>
    1048:	0a112e23          	sw	ra,188(sp)
    104c:	0a812c23          	sw	s0,184(sp)
    1050:	0a912a23          	sw	s1,180(sp)
    1054:	0b212823          	sw	s2,176(sp)
    1058:	0b312623          	sw	s3,172(sp)
    105c:	0b412423          	sw	s4,168(sp)
    1060:	0b512223          	sw	s5,164(sp)
    1064:	0b612023          	sw	s6,160(sp)
    1068:	09712e23          	sw	s7,156(sp)
    106c:	09812c23          	sw	s8,152(sp)
    1070:	09912a23          	sw	s9,148(sp)
    1074:	09a12823          	sw	s10,144(sp)
    1078:	09b12623          	sw	s11,140(sp)
    107c:	000017b7          	lui	a5,0x1
    1080:	00a00713          	li	a4,10
    1084:	30e7a223          	sw	a4,772(a5) # 1304 <__bss_start>
    1088:	000017b7          	lui	a5,0x1
    108c:	30878793          	addi	a5,a5,776 # 1308 <check>
    1090:	02c78693          	addi	a3,a5,44
    1094:	00100713          	li	a4,1
    1098:	00e7a023          	sw	a4,0(a5)
    109c:	00478793          	addi	a5,a5,4
    10a0:	fed79ce3          	bne	a5,a3,1098 <main+0x54>
    10a4:	00100793          	li	a5,1
    10a8:	04f12423          	sw	a5,72(sp)
    10ac:	00001cb7          	lui	s9,0x1
    10b0:	310c8c93          	addi	s9,s9,784 # 1310 <check+0x8>
    10b4:	04c10a93          	addi	s5,sp,76
    10b8:	00200a13          	li	s4,2
    10bc:	00a00b13          	li	s6,10
    10c0:	00001d37          	lui	s10,0x1
    10c4:	00001c37          	lui	s8,0x1
    10c8:	308c0c13          	addi	s8,s8,776 # 1308 <check>
    10cc:	00001db7          	lui	s11,0x1
    10d0:	03c0006f          	j	110c <main+0xc8>
    10d4:	00241413          	slli	s0,s0,0x2
    10d8:	08010793          	addi	a5,sp,128
    10dc:	00878433          	add	s0,a5,s0
    10e0:	00048593          	mv	a1,s1
    10e4:	000aa503          	lw	a0,0(s5)
    10e8:	140000ef          	jal	ra,1228 <__mulsi3>
    10ec:	fca42223          	sw	a0,-60(s0)
    10f0:	000aa503          	lw	a0,0(s5)
    10f4:	f0dff0ef          	jal	ra,1000 <printInt>
    10f8:	001a0a13          	addi	s4,s4,1
    10fc:	304dab03          	lw	s6,772(s11) # 1304 <__bss_start>
    1100:	004c8c93          	addi	s9,s9,4
    1104:	004a8a93          	addi	s5,s5,4
    1108:	0d4b4a63          	blt	s6,s4,11dc <main+0x198>
    110c:	000ca783          	lw	a5,0(s9)
    1110:	02078463          	beqz	a5,1138 <main+0xf4>
    1114:	358d2783          	lw	a5,856(s10) # 1358 <__bss_end>
    1118:	00178793          	addi	a5,a5,1
    111c:	34fd2c23          	sw	a5,856(s10)
    1120:	00279793          	slli	a5,a5,0x2
    1124:	08010713          	addi	a4,sp,128
    1128:	00f707b3          	add	a5,a4,a5
    112c:	f947a423          	sw	s4,-120(a5)
    1130:	fffa0793          	addi	a5,s4,-1
    1134:	00faa023          	sw	a5,0(s5)
    1138:	358d2b83          	lw	s7,856(s10)
    113c:	fb705ae3          	blez	s7,10f0 <main+0xac>
    1140:	00c12483          	lw	s1,12(sp)
    1144:	000a0593          	mv	a1,s4
    1148:	00048513          	mv	a0,s1
    114c:	0dc000ef          	jal	ra,1228 <__mulsi3>
    1150:	00050413          	mv	s0,a0
    1154:	f8ab4ee3          	blt	s6,a0,10f0 <main+0xac>
    1158:	00251793          	slli	a5,a0,0x2
    115c:	00fc07b3          	add	a5,s8,a5
    1160:	0007a023          	sw	zero,0(a5)
    1164:	00048593          	mv	a1,s1
    1168:	000a0513          	mv	a0,s4
    116c:	164000ef          	jal	ra,12d0 <__modsi3>
    1170:	01010993          	addi	s3,sp,16
    1174:	00100913          	li	s2,1
    1178:	f4050ee3          	beqz	a0,10d4 <main+0x90>
    117c:	00241413          	slli	s0,s0,0x2
    1180:	08010793          	addi	a5,sp,128
    1184:	00878433          	add	s0,a5,s0
    1188:	fff48593          	addi	a1,s1,-1
    118c:	000aa503          	lw	a0,0(s5)
    1190:	098000ef          	jal	ra,1228 <__mulsi3>
    1194:	fca42223          	sw	a0,-60(s0)
    1198:	00190913          	addi	s2,s2,1
    119c:	f52bcae3          	blt	s7,s2,10f0 <main+0xac>
    11a0:	0009a483          	lw	s1,0(s3)
    11a4:	000a0593          	mv	a1,s4
    11a8:	00048513          	mv	a0,s1
    11ac:	07c000ef          	jal	ra,1228 <__mulsi3>
    11b0:	00050413          	mv	s0,a0
    11b4:	f2ab4ee3          	blt	s6,a0,10f0 <main+0xac>
    11b8:	00241793          	slli	a5,s0,0x2
    11bc:	00fc07b3          	add	a5,s8,a5
    11c0:	0007a023          	sw	zero,0(a5)
    11c4:	00498993          	addi	s3,s3,4
    11c8:	00048593          	mv	a1,s1
    11cc:	000a0513          	mv	a0,s4
    11d0:	100000ef          	jal	ra,12d0 <__modsi3>
    11d4:	fa0514e3          	bnez	a0,117c <main+0x138>
    11d8:	efdff06f          	j	10d4 <main+0x90>
    11dc:	0fd00593          	li	a1,253
    11e0:	000017b7          	lui	a5,0x1
    11e4:	35c7a503          	lw	a0,860(a5) # 135c <judgeResult>
    11e8:	0e8000ef          	jal	ra,12d0 <__modsi3>
    11ec:	0bc12083          	lw	ra,188(sp)
    11f0:	0b812403          	lw	s0,184(sp)
    11f4:	0b412483          	lw	s1,180(sp)
    11f8:	0b012903          	lw	s2,176(sp)
    11fc:	0ac12983          	lw	s3,172(sp)
    1200:	0a812a03          	lw	s4,168(sp)
    1204:	0a412a83          	lw	s5,164(sp)
    1208:	0a012b03          	lw	s6,160(sp)
    120c:	09c12b83          	lw	s7,156(sp)
    1210:	09812c03          	lw	s8,152(sp)
    1214:	09412c83          	lw	s9,148(sp)
    1218:	09012d03          	lw	s10,144(sp)
    121c:	08c12d83          	lw	s11,140(sp)
    1220:	0c010113          	addi	sp,sp,192
    1224:	00008067          	ret

00001228 <__mulsi3>:
    1228:	00050613          	mv	a2,a0
    122c:	00000513          	li	a0,0
    1230:	0015f693          	andi	a3,a1,1
    1234:	00068463          	beqz	a3,123c <__mulsi3+0x14>
    1238:	00c50533          	add	a0,a0,a2
    123c:	0015d593          	srli	a1,a1,0x1
    1240:	00161613          	slli	a2,a2,0x1
    1244:	fe0596e3          	bnez	a1,1230 <__mulsi3+0x8>
    1248:	00008067          	ret

0000124c <__divsi3>:
    124c:	06054063          	bltz	a0,12ac <__umodsi3+0x10>
    1250:	0605c663          	bltz	a1,12bc <__umodsi3+0x20>

00001254 <__udivsi3>:
    1254:	00058613          	mv	a2,a1
    1258:	00050593          	mv	a1,a0
    125c:	fff00513          	li	a0,-1
    1260:	02060c63          	beqz	a2,1298 <__udivsi3+0x44>
    1264:	00100693          	li	a3,1
    1268:	00b67a63          	bgeu	a2,a1,127c <__udivsi3+0x28>
    126c:	00c05863          	blez	a2,127c <__udivsi3+0x28>
    1270:	00161613          	slli	a2,a2,0x1
    1274:	00169693          	slli	a3,a3,0x1
    1278:	feb66ae3          	bltu	a2,a1,126c <__udivsi3+0x18>
    127c:	00000513          	li	a0,0
    1280:	00c5e663          	bltu	a1,a2,128c <__udivsi3+0x38>
    1284:	40c585b3          	sub	a1,a1,a2
    1288:	00d56533          	or	a0,a0,a3
    128c:	0016d693          	srli	a3,a3,0x1
    1290:	00165613          	srli	a2,a2,0x1
    1294:	fe0696e3          	bnez	a3,1280 <__udivsi3+0x2c>
    1298:	00008067          	ret

0000129c <__umodsi3>:
    129c:	00008293          	mv	t0,ra
    12a0:	fb5ff0ef          	jal	ra,1254 <__udivsi3>
    12a4:	00058513          	mv	a0,a1
    12a8:	00028067          	jr	t0
    12ac:	40a00533          	neg	a0,a0
    12b0:	0005d863          	bgez	a1,12c0 <__umodsi3+0x24>
    12b4:	40b005b3          	neg	a1,a1
    12b8:	f9dff06f          	j	1254 <__udivsi3>
    12bc:	40b005b3          	neg	a1,a1
    12c0:	00008293          	mv	t0,ra
    12c4:	f91ff0ef          	jal	ra,1254 <__udivsi3>
    12c8:	40a00533          	neg	a0,a0
    12cc:	00028067          	jr	t0

000012d0 <__modsi3>:
    12d0:	00008293          	mv	t0,ra
    12d4:	0005ca63          	bltz	a1,12e8 <__modsi3+0x18>
    12d8:	00054c63          	bltz	a0,12f0 <__modsi3+0x20>
    12dc:	f79ff0ef          	jal	ra,1254 <__udivsi3>
    12e0:	00058513          	mv	a0,a1
    12e4:	00028067          	jr	t0
    12e8:	40b005b3          	neg	a1,a1
    12ec:	fe0558e3          	bgez	a0,12dc <__modsi3+0xc>
    12f0:	40a00533          	neg	a0,a0
    12f4:	f61ff0ef          	jal	ra,1254 <__udivsi3>
    12f8:	40b00533          	neg	a0,a1
    12fc:	00028067          	jr	t0

Disassembly of section .srodata:

00001300 <Mod>:
    1300:	00fd                	addi	ra,ra,31
	...
